ARM GAS  C:\Users\LUKEYO~1\AppData\Local\Temp\ccnYjAGW.s 			page 1


   1              		.syntax unified
   2              		.cpu cortex-m0
   3              		.fpu softvfp
   4              		.eabi_attribute 20, 1
   5              		.eabi_attribute 21, 1
   6              		.eabi_attribute 23, 3
   7              		.eabi_attribute 24, 1
   8              		.eabi_attribute 25, 1
   9              		.eabi_attribute 26, 1
  10              		.eabi_attribute 30, 1
  11              		.eabi_attribute 34, 0
  12              		.eabi_attribute 18, 4
  13              		.thumb
  14              		.syntax unified
  15              		.file	"cyfitter_cfg.c"
  16              		.text
  17              	.Ltext0:
  18              		.cfi_sections	.debug_frame
  19              		.section	.text.cfg_write_bytes32,"ax",%progbits
  20              		.align	2
  21              		.code	16
  22              		.thumb_func
  23              		.type	cfg_write_bytes32, %function
  24              	cfg_write_bytes32:
  25              	.LFB3:
  26              		.file 1 "Generated_Source\\PSoC4\\cyfitter_cfg.c"
   1:Generated_Source\PSoC4/cyfitter_cfg.c **** 
   2:Generated_Source\PSoC4/cyfitter_cfg.c **** /*******************************************************************************
   3:Generated_Source\PSoC4/cyfitter_cfg.c **** * File Name: cyfitter_cfg.c
   4:Generated_Source\PSoC4/cyfitter_cfg.c **** * 
   5:Generated_Source\PSoC4/cyfitter_cfg.c **** * PSoC Creator  4.2
   6:Generated_Source\PSoC4/cyfitter_cfg.c **** *
   7:Generated_Source\PSoC4/cyfitter_cfg.c **** * Description:
   8:Generated_Source\PSoC4/cyfitter_cfg.c **** * This file contains device initialization code.
   9:Generated_Source\PSoC4/cyfitter_cfg.c **** * Except for the user defined sections in CyClockStartupError(), this file should not be modified.
  10:Generated_Source\PSoC4/cyfitter_cfg.c **** * This file is automatically generated by PSoC Creator.
  11:Generated_Source\PSoC4/cyfitter_cfg.c **** *
  12:Generated_Source\PSoC4/cyfitter_cfg.c **** ********************************************************************************
  13:Generated_Source\PSoC4/cyfitter_cfg.c **** * Copyright (c) 2007-2018 Cypress Semiconductor.  All rights reserved.
  14:Generated_Source\PSoC4/cyfitter_cfg.c **** * You may use this file only in accordance with the license, terms, conditions, 
  15:Generated_Source\PSoC4/cyfitter_cfg.c **** * disclaimers, and limitations in the end user license agreement accompanying 
  16:Generated_Source\PSoC4/cyfitter_cfg.c **** * the software package with which this file was provided.
  17:Generated_Source\PSoC4/cyfitter_cfg.c **** ********************************************************************************/
  18:Generated_Source\PSoC4/cyfitter_cfg.c **** 
  19:Generated_Source\PSoC4/cyfitter_cfg.c **** #include <string.h>
  20:Generated_Source\PSoC4/cyfitter_cfg.c **** #include "cytypes.h"
  21:Generated_Source\PSoC4/cyfitter_cfg.c **** #include "cydevice_trm.h"
  22:Generated_Source\PSoC4/cyfitter_cfg.c **** #include "cyfitter.h"
  23:Generated_Source\PSoC4/cyfitter_cfg.c **** #include "CyLib.h"
  24:Generated_Source\PSoC4/cyfitter_cfg.c **** #include "CyLFClk.h"
  25:Generated_Source\PSoC4/cyfitter_cfg.c **** #include "cyfitter_cfg.h"
  26:Generated_Source\PSoC4/cyfitter_cfg.c **** #include "cyapicallbacks.h"
  27:Generated_Source\PSoC4/cyfitter_cfg.c **** 
  28:Generated_Source\PSoC4/cyfitter_cfg.c **** 
  29:Generated_Source\PSoC4/cyfitter_cfg.c **** #if defined(__GNUC__) || defined(__ARMCC_VERSION)
  30:Generated_Source\PSoC4/cyfitter_cfg.c ****     #define CYPACKED 
  31:Generated_Source\PSoC4/cyfitter_cfg.c ****     #define CYPACKED_ATTR __attribute__ ((packed))
ARM GAS  C:\Users\LUKEYO~1\AppData\Local\Temp\ccnYjAGW.s 			page 2


  32:Generated_Source\PSoC4/cyfitter_cfg.c ****     #define CYALIGNED __attribute__ ((aligned))
  33:Generated_Source\PSoC4/cyfitter_cfg.c ****     #define CY_CFG_UNUSED __attribute__ ((unused))
  34:Generated_Source\PSoC4/cyfitter_cfg.c ****     #ifndef CY_CFG_SECTION
  35:Generated_Source\PSoC4/cyfitter_cfg.c ****         #define CY_CFG_SECTION __attribute__ ((section(".psocinit")))
  36:Generated_Source\PSoC4/cyfitter_cfg.c ****     #endif
  37:Generated_Source\PSoC4/cyfitter_cfg.c ****     
  38:Generated_Source\PSoC4/cyfitter_cfg.c ****     #if defined(__ARMCC_VERSION)
  39:Generated_Source\PSoC4/cyfitter_cfg.c ****         #define CY_CFG_MEMORY_BARRIER() __memory_changed()
  40:Generated_Source\PSoC4/cyfitter_cfg.c ****     #else
  41:Generated_Source\PSoC4/cyfitter_cfg.c ****         #define CY_CFG_MEMORY_BARRIER() __sync_synchronize()
  42:Generated_Source\PSoC4/cyfitter_cfg.c ****     #endif
  43:Generated_Source\PSoC4/cyfitter_cfg.c ****     
  44:Generated_Source\PSoC4/cyfitter_cfg.c **** #elif defined(__ICCARM__)
  45:Generated_Source\PSoC4/cyfitter_cfg.c ****     #include <intrinsics.h>
  46:Generated_Source\PSoC4/cyfitter_cfg.c **** 
  47:Generated_Source\PSoC4/cyfitter_cfg.c ****     #define CYPACKED __packed
  48:Generated_Source\PSoC4/cyfitter_cfg.c ****     #define CYPACKED_ATTR 
  49:Generated_Source\PSoC4/cyfitter_cfg.c ****     #define CYALIGNED _Pragma("data_alignment=4")
  50:Generated_Source\PSoC4/cyfitter_cfg.c ****     #define CY_CFG_UNUSED _Pragma("diag_suppress=Pe177")
  51:Generated_Source\PSoC4/cyfitter_cfg.c ****     #define CY_CFG_SECTION _Pragma("location=\".psocinit\"")
  52:Generated_Source\PSoC4/cyfitter_cfg.c ****     
  53:Generated_Source\PSoC4/cyfitter_cfg.c ****     #define CY_CFG_MEMORY_BARRIER() __DMB()
  54:Generated_Source\PSoC4/cyfitter_cfg.c ****     
  55:Generated_Source\PSoC4/cyfitter_cfg.c **** #else
  56:Generated_Source\PSoC4/cyfitter_cfg.c ****     #error Unsupported toolchain
  57:Generated_Source\PSoC4/cyfitter_cfg.c **** #endif
  58:Generated_Source\PSoC4/cyfitter_cfg.c **** 
  59:Generated_Source\PSoC4/cyfitter_cfg.c **** #ifndef CYCODE
  60:Generated_Source\PSoC4/cyfitter_cfg.c ****     #define CYCODE
  61:Generated_Source\PSoC4/cyfitter_cfg.c **** #endif
  62:Generated_Source\PSoC4/cyfitter_cfg.c **** #ifndef CYDATA
  63:Generated_Source\PSoC4/cyfitter_cfg.c ****     #define CYDATA
  64:Generated_Source\PSoC4/cyfitter_cfg.c **** #endif
  65:Generated_Source\PSoC4/cyfitter_cfg.c **** #ifndef CYFAR
  66:Generated_Source\PSoC4/cyfitter_cfg.c ****     #define CYFAR
  67:Generated_Source\PSoC4/cyfitter_cfg.c **** #endif
  68:Generated_Source\PSoC4/cyfitter_cfg.c **** #ifndef CYXDATA
  69:Generated_Source\PSoC4/cyfitter_cfg.c ****     #define CYXDATA
  70:Generated_Source\PSoC4/cyfitter_cfg.c **** #endif
  71:Generated_Source\PSoC4/cyfitter_cfg.c **** 
  72:Generated_Source\PSoC4/cyfitter_cfg.c **** 
  73:Generated_Source\PSoC4/cyfitter_cfg.c **** CY_CFG_UNUSED
  74:Generated_Source\PSoC4/cyfitter_cfg.c **** static void CYMEMZERO(void *s, size_t n);
  75:Generated_Source\PSoC4/cyfitter_cfg.c **** CY_CFG_UNUSED
  76:Generated_Source\PSoC4/cyfitter_cfg.c **** static void CYMEMZERO(void *s, size_t n)
  77:Generated_Source\PSoC4/cyfitter_cfg.c **** {
  78:Generated_Source\PSoC4/cyfitter_cfg.c **** 	(void)memset(s, 0, n);
  79:Generated_Source\PSoC4/cyfitter_cfg.c **** }
  80:Generated_Source\PSoC4/cyfitter_cfg.c **** CY_CFG_UNUSED
  81:Generated_Source\PSoC4/cyfitter_cfg.c **** static void CYCONFIGCPY(void *dest, const void *src, size_t n);
  82:Generated_Source\PSoC4/cyfitter_cfg.c **** CY_CFG_UNUSED
  83:Generated_Source\PSoC4/cyfitter_cfg.c **** static void CYCONFIGCPY(void *dest, const void *src, size_t n)
  84:Generated_Source\PSoC4/cyfitter_cfg.c **** {
  85:Generated_Source\PSoC4/cyfitter_cfg.c **** 	(void)memcpy(dest, src, n);
  86:Generated_Source\PSoC4/cyfitter_cfg.c **** }
  87:Generated_Source\PSoC4/cyfitter_cfg.c **** CY_CFG_UNUSED
  88:Generated_Source\PSoC4/cyfitter_cfg.c **** static void CYCONFIGCPYCODE(void *dest, const void *src, size_t n);
ARM GAS  C:\Users\LUKEYO~1\AppData\Local\Temp\ccnYjAGW.s 			page 3


  89:Generated_Source\PSoC4/cyfitter_cfg.c **** CY_CFG_UNUSED
  90:Generated_Source\PSoC4/cyfitter_cfg.c **** static void CYCONFIGCPYCODE(void *dest, const void *src, size_t n)
  91:Generated_Source\PSoC4/cyfitter_cfg.c **** {
  92:Generated_Source\PSoC4/cyfitter_cfg.c **** 	(void)memcpy(dest, src, n);
  93:Generated_Source\PSoC4/cyfitter_cfg.c **** }
  94:Generated_Source\PSoC4/cyfitter_cfg.c **** 
  95:Generated_Source\PSoC4/cyfitter_cfg.c **** 
  96:Generated_Source\PSoC4/cyfitter_cfg.c **** 
  97:Generated_Source\PSoC4/cyfitter_cfg.c **** 
  98:Generated_Source\PSoC4/cyfitter_cfg.c **** /* Clock startup error codes                                                   */
  99:Generated_Source\PSoC4/cyfitter_cfg.c **** #define CYCLOCKSTART_NO_ERROR    0u
 100:Generated_Source\PSoC4/cyfitter_cfg.c **** #define CYCLOCKSTART_XTAL_ERROR  1u
 101:Generated_Source\PSoC4/cyfitter_cfg.c **** #define CYCLOCKSTART_32KHZ_ERROR 2u
 102:Generated_Source\PSoC4/cyfitter_cfg.c **** #define CYCLOCKSTART_PLL_ERROR   3u
 103:Generated_Source\PSoC4/cyfitter_cfg.c **** #define CYCLOCKSTART_FLL_ERROR   4u
 104:Generated_Source\PSoC4/cyfitter_cfg.c **** #define CYCLOCKSTART_WCO_ERROR   5u
 105:Generated_Source\PSoC4/cyfitter_cfg.c **** 
 106:Generated_Source\PSoC4/cyfitter_cfg.c **** 
 107:Generated_Source\PSoC4/cyfitter_cfg.c **** #ifdef CY_NEED_CYCLOCKSTARTUPERROR
 108:Generated_Source\PSoC4/cyfitter_cfg.c **** /*******************************************************************************
 109:Generated_Source\PSoC4/cyfitter_cfg.c **** * Function Name: CyClockStartupError
 110:Generated_Source\PSoC4/cyfitter_cfg.c **** ********************************************************************************
 111:Generated_Source\PSoC4/cyfitter_cfg.c **** * Summary:
 112:Generated_Source\PSoC4/cyfitter_cfg.c **** *  If an error is encountered during clock configuration (crystal startup error,
 113:Generated_Source\PSoC4/cyfitter_cfg.c **** *  PLL lock error, etc.), the system will end up here.  Unless reimplemented by
 114:Generated_Source\PSoC4/cyfitter_cfg.c **** *  the customer, this function will stop in an infinite loop.
 115:Generated_Source\PSoC4/cyfitter_cfg.c **** *
 116:Generated_Source\PSoC4/cyfitter_cfg.c **** * Parameters:
 117:Generated_Source\PSoC4/cyfitter_cfg.c **** *   void
 118:Generated_Source\PSoC4/cyfitter_cfg.c **** *
 119:Generated_Source\PSoC4/cyfitter_cfg.c **** * Return:
 120:Generated_Source\PSoC4/cyfitter_cfg.c **** *   void
 121:Generated_Source\PSoC4/cyfitter_cfg.c **** *
 122:Generated_Source\PSoC4/cyfitter_cfg.c **** *******************************************************************************/
 123:Generated_Source\PSoC4/cyfitter_cfg.c **** CY_CFG_UNUSED
 124:Generated_Source\PSoC4/cyfitter_cfg.c **** static void CyClockStartupError(uint8 errorCode);
 125:Generated_Source\PSoC4/cyfitter_cfg.c **** CY_CFG_UNUSED
 126:Generated_Source\PSoC4/cyfitter_cfg.c **** static void CyClockStartupError(uint8 errorCode)
 127:Generated_Source\PSoC4/cyfitter_cfg.c **** {
 128:Generated_Source\PSoC4/cyfitter_cfg.c ****     /* To remove the compiler warning if errorCode not used.                */
 129:Generated_Source\PSoC4/cyfitter_cfg.c ****     errorCode = errorCode;
 130:Generated_Source\PSoC4/cyfitter_cfg.c **** 
 131:Generated_Source\PSoC4/cyfitter_cfg.c ****     /* If we have a clock startup error (bad MHz crystal, PLL lock, etc.),  */
 132:Generated_Source\PSoC4/cyfitter_cfg.c ****     /* we will end up here to allow the customer to implement something to  */
 133:Generated_Source\PSoC4/cyfitter_cfg.c ****     /* deal with the clock condition.                                       */
 134:Generated_Source\PSoC4/cyfitter_cfg.c **** 
 135:Generated_Source\PSoC4/cyfitter_cfg.c **** #ifdef CY_CFG_CLOCK_STARTUP_ERROR_CALLBACK
 136:Generated_Source\PSoC4/cyfitter_cfg.c ****     CY_CFG_Clock_Startup_ErrorCallback();
 137:Generated_Source\PSoC4/cyfitter_cfg.c **** #else
 138:Generated_Source\PSoC4/cyfitter_cfg.c ****     /*  If not using CY_CFG_CLOCK_STARTUP_ERROR_CALLBACK, place your clock startup code here. */
 139:Generated_Source\PSoC4/cyfitter_cfg.c ****     /* `#START CyClockStartupError` */
 140:Generated_Source\PSoC4/cyfitter_cfg.c **** 
 141:Generated_Source\PSoC4/cyfitter_cfg.c **** 
 142:Generated_Source\PSoC4/cyfitter_cfg.c **** 
 143:Generated_Source\PSoC4/cyfitter_cfg.c ****     /* `#END` */
 144:Generated_Source\PSoC4/cyfitter_cfg.c **** 
 145:Generated_Source\PSoC4/cyfitter_cfg.c ****     while(1) {}
ARM GAS  C:\Users\LUKEYO~1\AppData\Local\Temp\ccnYjAGW.s 			page 4


 146:Generated_Source\PSoC4/cyfitter_cfg.c **** #endif /* CY_CFG_CLOCK_STARTUP_ERROR_CALLBACK */
 147:Generated_Source\PSoC4/cyfitter_cfg.c **** }
 148:Generated_Source\PSoC4/cyfitter_cfg.c **** #endif
 149:Generated_Source\PSoC4/cyfitter_cfg.c **** 
 150:Generated_Source\PSoC4/cyfitter_cfg.c **** #define CY_CFG_BASE_ADDR_COUNT 8u
 151:Generated_Source\PSoC4/cyfitter_cfg.c **** CYPACKED typedef struct
 152:Generated_Source\PSoC4/cyfitter_cfg.c **** {
 153:Generated_Source\PSoC4/cyfitter_cfg.c **** 	uint8 offset;
 154:Generated_Source\PSoC4/cyfitter_cfg.c **** 	uint8 value;
 155:Generated_Source\PSoC4/cyfitter_cfg.c **** } CYPACKED_ATTR cy_cfg_addrvalue_t;
 156:Generated_Source\PSoC4/cyfitter_cfg.c **** 
 157:Generated_Source\PSoC4/cyfitter_cfg.c **** 
 158:Generated_Source\PSoC4/cyfitter_cfg.c **** 
 159:Generated_Source\PSoC4/cyfitter_cfg.c **** /*******************************************************************************
 160:Generated_Source\PSoC4/cyfitter_cfg.c **** * Function Name: cfg_write_bytes32
 161:Generated_Source\PSoC4/cyfitter_cfg.c **** ********************************************************************************
 162:Generated_Source\PSoC4/cyfitter_cfg.c **** * Summary:
 163:Generated_Source\PSoC4/cyfitter_cfg.c **** *  This function is used for setting up the chip configuration areas that
 164:Generated_Source\PSoC4/cyfitter_cfg.c **** *  contain relatively sparse data.
 165:Generated_Source\PSoC4/cyfitter_cfg.c **** *
 166:Generated_Source\PSoC4/cyfitter_cfg.c **** * Parameters:
 167:Generated_Source\PSoC4/cyfitter_cfg.c **** *   void
 168:Generated_Source\PSoC4/cyfitter_cfg.c **** *
 169:Generated_Source\PSoC4/cyfitter_cfg.c **** * Return:
 170:Generated_Source\PSoC4/cyfitter_cfg.c **** *   void
 171:Generated_Source\PSoC4/cyfitter_cfg.c **** *
 172:Generated_Source\PSoC4/cyfitter_cfg.c **** *******************************************************************************/
 173:Generated_Source\PSoC4/cyfitter_cfg.c **** static void cfg_write_bytes32(const uint32 addr_table[], const cy_cfg_addrvalue_t data_table[]);
 174:Generated_Source\PSoC4/cyfitter_cfg.c **** static void cfg_write_bytes32(const uint32 addr_table[], const cy_cfg_addrvalue_t data_table[])
 175:Generated_Source\PSoC4/cyfitter_cfg.c **** {
  27              		.loc 1 175 0
  28              		.cfi_startproc
  29              		@ args = 0, pretend = 0, frame = 0
  30              		@ frame_needed = 0, uses_anonymous_args = 0
  31              	.LVL0:
  32 0000 F0B5     		push	{r4, r5, r6, r7, lr}
  33              		.cfi_def_cfa_offset 20
  34              		.cfi_offset 4, -20
  35              		.cfi_offset 5, -16
  36              		.cfi_offset 6, -12
  37              		.cfi_offset 7, -8
  38              		.cfi_offset 14, -4
  39              	.LVL1:
 176:Generated_Source\PSoC4/cyfitter_cfg.c **** 	/* For 32-bit little-endian architectures */
 177:Generated_Source\PSoC4/cyfitter_cfg.c **** 	uint32 i, j = 0u;
  40              		.loc 1 177 0
  41 0002 0025     		movs	r5, #0
 178:Generated_Source\PSoC4/cyfitter_cfg.c **** 	for (i = 0u; i < CY_CFG_BASE_ADDR_COUNT; i++)
  42              		.loc 1 178 0
  43 0004 0027     		movs	r7, #0
  44 0006 11E0     		b	.L2
  45              	.LVL2:
  46              	.L5:
  47              	.LBB2:
 179:Generated_Source\PSoC4/cyfitter_cfg.c **** 	{
 180:Generated_Source\PSoC4/cyfitter_cfg.c **** 		uint32 baseAddr = addr_table[i];
  48              		.loc 1 180 0
ARM GAS  C:\Users\LUKEYO~1\AppData\Local\Temp\ccnYjAGW.s 			page 5


  49 0008 BB00     		lsls	r3, r7, #2
  50 000a C658     		ldr	r6, [r0, r3]
  51              	.LVL3:
 181:Generated_Source\PSoC4/cyfitter_cfg.c **** 		uint8 count = (uint8)baseAddr;
  52              		.loc 1 181 0
  53 000c F3B2     		uxtb	r3, r6
  54              	.LVL4:
 182:Generated_Source\PSoC4/cyfitter_cfg.c **** 		baseAddr &= 0xFFFFFF00u;
  55              		.loc 1 182 0
  56 000e FF22     		movs	r2, #255
  57 0010 9643     		bics	r6, r2
  58              	.LVL5:
 183:Generated_Source\PSoC4/cyfitter_cfg.c **** 		while (count != 0u)
  59              		.loc 1 183 0
  60 0012 08E0     		b	.L3
  61              	.L4:
 184:Generated_Source\PSoC4/cyfitter_cfg.c **** 		{
 185:Generated_Source\PSoC4/cyfitter_cfg.c **** 			CY_SET_REG8((void *)(baseAddr + data_table[j].offset), data_table[j].value);
  62              		.loc 1 185 0
  63 0014 6A00     		lsls	r2, r5, #1
  64 0016 8A18     		adds	r2, r1, r2
  65 0018 1478     		ldrb	r4, [r2]
  66 001a A419     		adds	r4, r4, r6
  67 001c 5278     		ldrb	r2, [r2, #1]
  68 001e 2270     		strb	r2, [r4]
 186:Generated_Source\PSoC4/cyfitter_cfg.c **** 			j++;
  69              		.loc 1 186 0
  70 0020 0135     		adds	r5, r5, #1
  71              	.LVL6:
 187:Generated_Source\PSoC4/cyfitter_cfg.c **** 			count--;
  72              		.loc 1 187 0
  73 0022 013B     		subs	r3, r3, #1
  74              	.LVL7:
  75 0024 DBB2     		uxtb	r3, r3
  76              	.LVL8:
  77              	.L3:
 183:Generated_Source\PSoC4/cyfitter_cfg.c **** 		{
  78              		.loc 1 183 0
  79 0026 002B     		cmp	r3, #0
  80 0028 F4D1     		bne	.L4
  81              	.LBE2:
 178:Generated_Source\PSoC4/cyfitter_cfg.c **** 	{
  82              		.loc 1 178 0 discriminator 2
  83 002a 0137     		adds	r7, r7, #1
  84              	.LVL9:
  85              	.L2:
 178:Generated_Source\PSoC4/cyfitter_cfg.c **** 	{
  86              		.loc 1 178 0 is_stmt 0 discriminator 1
  87 002c 072F     		cmp	r7, #7
  88 002e EBD9     		bls	.L5
 188:Generated_Source\PSoC4/cyfitter_cfg.c **** 		}
 189:Generated_Source\PSoC4/cyfitter_cfg.c **** 	}
 190:Generated_Source\PSoC4/cyfitter_cfg.c **** }
  89              		.loc 1 190 0 is_stmt 1
  90              		@ sp needed
  91              	.LVL10:
  92              	.LVL11:
ARM GAS  C:\Users\LUKEYO~1\AppData\Local\Temp\ccnYjAGW.s 			page 6


  93 0030 F0BD     		pop	{r4, r5, r6, r7, pc}
  94              		.cfi_endproc
  95              	.LFE3:
  96              		.size	cfg_write_bytes32, .-cfg_write_bytes32
  97 0032 C046     		.section	.text.CYMEMZERO,"ax",%progbits
  98              		.align	2
  99              		.code	16
 100              		.thumb_func
 101              		.type	CYMEMZERO, %function
 102              	CYMEMZERO:
 103              	.LFB0:
  77:Generated_Source\PSoC4/cyfitter_cfg.c **** 	(void)memset(s, 0, n);
 104              		.loc 1 77 0
 105              		.cfi_startproc
 106              		@ args = 0, pretend = 0, frame = 0
 107              		@ frame_needed = 0, uses_anonymous_args = 0
 108              	.LVL12:
 109 0000 10B5     		push	{r4, lr}
 110              		.cfi_def_cfa_offset 8
 111              		.cfi_offset 4, -8
 112              		.cfi_offset 14, -4
 113 0002 0A00     		movs	r2, r1
  78:Generated_Source\PSoC4/cyfitter_cfg.c **** }
 114              		.loc 1 78 0
 115 0004 0021     		movs	r1, #0
 116              	.LVL13:
 117 0006 FFF7FEFF 		bl	memset
 118              	.LVL14:
  79:Generated_Source\PSoC4/cyfitter_cfg.c **** CY_CFG_UNUSED
 119              		.loc 1 79 0
 120              		@ sp needed
 121 000a 10BD     		pop	{r4, pc}
 122              		.cfi_endproc
 123              	.LFE0:
 124              		.size	CYMEMZERO, .-CYMEMZERO
 125              		.section	.text.CYCONFIGCPYCODE,"ax",%progbits
 126              		.align	2
 127              		.code	16
 128              		.thumb_func
 129              		.type	CYCONFIGCPYCODE, %function
 130              	CYCONFIGCPYCODE:
 131              	.LFB2:
  91:Generated_Source\PSoC4/cyfitter_cfg.c **** 	(void)memcpy(dest, src, n);
 132              		.loc 1 91 0
 133              		.cfi_startproc
 134              		@ args = 0, pretend = 0, frame = 0
 135              		@ frame_needed = 0, uses_anonymous_args = 0
 136              	.LVL15:
 137 0000 10B5     		push	{r4, lr}
 138              		.cfi_def_cfa_offset 8
 139              		.cfi_offset 4, -8
 140              		.cfi_offset 14, -4
  92:Generated_Source\PSoC4/cyfitter_cfg.c **** }
 141              		.loc 1 92 0
 142 0002 FFF7FEFF 		bl	memcpy
 143              	.LVL16:
  93:Generated_Source\PSoC4/cyfitter_cfg.c **** 
ARM GAS  C:\Users\LUKEYO~1\AppData\Local\Temp\ccnYjAGW.s 			page 7


 144              		.loc 1 93 0
 145              		@ sp needed
 146 0006 10BD     		pop	{r4, pc}
 147              		.cfi_endproc
 148              	.LFE2:
 149              		.size	CYCONFIGCPYCODE, .-CYCONFIGCPYCODE
 150              		.section	.psocinit,"ax",%progbits
 151              		.align	2
 152              		.code	16
 153              		.thumb_func
 154              		.type	ClockSetup, %function
 155              	ClockSetup:
 156              	.LFB4:
 191:Generated_Source\PSoC4/cyfitter_cfg.c **** 
 192:Generated_Source\PSoC4/cyfitter_cfg.c **** 
 193:Generated_Source\PSoC4/cyfitter_cfg.c **** /*******************************************************************************
 194:Generated_Source\PSoC4/cyfitter_cfg.c **** * Function Name: ClockSetup
 195:Generated_Source\PSoC4/cyfitter_cfg.c **** ********************************************************************************
 196:Generated_Source\PSoC4/cyfitter_cfg.c **** *
 197:Generated_Source\PSoC4/cyfitter_cfg.c **** * Summary:
 198:Generated_Source\PSoC4/cyfitter_cfg.c **** *   Performs the initialization of all of the clocks in the device based on the
 199:Generated_Source\PSoC4/cyfitter_cfg.c **** *   settings in the Clock tab of the DWR.  This includes enabling the requested
 200:Generated_Source\PSoC4/cyfitter_cfg.c **** *   clocks and setting the necessary dividers to produce the desired frequency. 
 201:Generated_Source\PSoC4/cyfitter_cfg.c **** *
 202:Generated_Source\PSoC4/cyfitter_cfg.c **** * Parameters:
 203:Generated_Source\PSoC4/cyfitter_cfg.c **** *   void
 204:Generated_Source\PSoC4/cyfitter_cfg.c **** *
 205:Generated_Source\PSoC4/cyfitter_cfg.c **** * Return:
 206:Generated_Source\PSoC4/cyfitter_cfg.c **** *   void
 207:Generated_Source\PSoC4/cyfitter_cfg.c **** *
 208:Generated_Source\PSoC4/cyfitter_cfg.c **** *******************************************************************************/
 209:Generated_Source\PSoC4/cyfitter_cfg.c **** static void ClockSetup(void);
 210:Generated_Source\PSoC4/cyfitter_cfg.c **** CY_CFG_SECTION
 211:Generated_Source\PSoC4/cyfitter_cfg.c **** static void ClockSetup(void)
 212:Generated_Source\PSoC4/cyfitter_cfg.c **** {
 157              		.loc 1 212 0
 158              		.cfi_startproc
 159              		@ args = 0, pretend = 0, frame = 0
 160              		@ frame_needed = 0, uses_anonymous_args = 0
 161 0000 70B5     		push	{r4, r5, r6, lr}
 162              		.cfi_def_cfa_offset 16
 163              		.cfi_offset 4, -16
 164              		.cfi_offset 5, -12
 165              		.cfi_offset 6, -8
 166              		.cfi_offset 14, -4
 213:Generated_Source\PSoC4/cyfitter_cfg.c **** 	/* Enable HALF_EN before trimming for the flash accelerator. */
 214:Generated_Source\PSoC4/cyfitter_cfg.c **** 	CY_SET_REG32((void CYXDATA *)(CYREG_CLK_SELECT), (CY_GET_REG32((void *)CYREG_CLK_SELECT) | 0x00040
 167              		.loc 1 214 0
 168 0002 194C     		ldr	r4, .L9
 169 0004 2368     		ldr	r3, [r4]
 170 0006 8022     		movs	r2, #128
 171 0008 D202     		lsls	r2, r2, #11
 172 000a 1343     		orrs	r3, r2
 173 000c 2360     		str	r3, [r4]
 215:Generated_Source\PSoC4/cyfitter_cfg.c **** 
 216:Generated_Source\PSoC4/cyfitter_cfg.c **** 	/* Setup and trim IMO based on desired frequency. */
 217:Generated_Source\PSoC4/cyfitter_cfg.c **** 	CySysClkWriteImoFreq(24u);
ARM GAS  C:\Users\LUKEYO~1\AppData\Local\Temp\ccnYjAGW.s 			page 8


 174              		.loc 1 217 0
 175 000e 1820     		movs	r0, #24
 176 0010 FFF7FEFF 		bl	CySysClkWriteImoFreq
 177              	.LVL17:
 218:Generated_Source\PSoC4/cyfitter_cfg.c **** 
 219:Generated_Source\PSoC4/cyfitter_cfg.c **** 	/* Disable HALF_EN since it is not required at this IMO frequency. */
 220:Generated_Source\PSoC4/cyfitter_cfg.c **** 	CY_SET_REG32((void CYXDATA *)(CYREG_CLK_SELECT), (CY_GET_REG32((void *)CYREG_CLK_SELECT) & 0xFFFBF
 178              		.loc 1 220 0
 179 0014 2268     		ldr	r2, [r4]
 180 0016 154B     		ldr	r3, .L9+4
 181 0018 1340     		ands	r3, r2
 182 001a 2360     		str	r3, [r4]
 221:Generated_Source\PSoC4/cyfitter_cfg.c **** 	/* CYDEV_CLK_ILO_CONFIG Starting address: CYDEV_CLK_ILO_CONFIG */
 222:Generated_Source\PSoC4/cyfitter_cfg.c **** 	CY_SET_REG32((void *)(CYREG_CLK_ILO_CONFIG), 0x80000006u);
 183              		.loc 1 222 0
 184 001c 144A     		ldr	r2, .L9+8
 185 001e 154B     		ldr	r3, .L9+12
 186 0020 1A60     		str	r2, [r3]
 223:Generated_Source\PSoC4/cyfitter_cfg.c **** 
 224:Generated_Source\PSoC4/cyfitter_cfg.c **** 
 225:Generated_Source\PSoC4/cyfitter_cfg.c **** 	/* CYDEV_CLK_SELECT00 Starting address: CYDEV_CLK_SELECT00 */
 226:Generated_Source\PSoC4/cyfitter_cfg.c **** 	CY_SET_REG32((void *)(CYREG_CLK_SELECT02), 0x00000010u);
 187              		.loc 1 226 0
 188 0022 1022     		movs	r2, #16
 189 0024 144B     		ldr	r3, .L9+16
 190 0026 1A60     		str	r2, [r3]
 227:Generated_Source\PSoC4/cyfitter_cfg.c **** 	CY_SET_REG32((void *)(CYREG_CLK_SELECT08), 0x00000030u);
 191              		.loc 1 227 0
 192 0028 2032     		adds	r2, r2, #32
 193 002a 144B     		ldr	r3, .L9+20
 194 002c 1A60     		str	r2, [r3]
 228:Generated_Source\PSoC4/cyfitter_cfg.c **** 	CY_SET_REG32((void *)(CYREG_CLK_SELECT12), 0x00000020u);
 195              		.loc 1 228 0
 196 002e 103A     		subs	r2, r2, #16
 197 0030 134B     		ldr	r3, .L9+24
 198 0032 1A60     		str	r2, [r3]
 229:Generated_Source\PSoC4/cyfitter_cfg.c **** 
 230:Generated_Source\PSoC4/cyfitter_cfg.c **** 	/* CYDEV_CLK_IMO_CONFIG Starting address: CYDEV_CLK_IMO_CONFIG */
 231:Generated_Source\PSoC4/cyfitter_cfg.c **** 	CY_SET_REG32((void *)(CYREG_CLK_IMO_CONFIG), 0x80000000u);
 199              		.loc 1 231 0
 200 0034 8022     		movs	r2, #128
 201 0036 1206     		lsls	r2, r2, #24
 202 0038 124B     		ldr	r3, .L9+28
 203 003a 1A60     		str	r2, [r3]
 232:Generated_Source\PSoC4/cyfitter_cfg.c **** 
 233:Generated_Source\PSoC4/cyfitter_cfg.c **** 	/* CYDEV_CLK_SELECT Starting address: CYDEV_CLK_SELECT */
 234:Generated_Source\PSoC4/cyfitter_cfg.c **** 	CY_SET_REG32((void *)(CYREG_CLK_SELECT), 0x00000000u);
 204              		.loc 1 234 0
 205 003c 0025     		movs	r5, #0
 206 003e 2560     		str	r5, [r4]
 235:Generated_Source\PSoC4/cyfitter_cfg.c **** 
 236:Generated_Source\PSoC4/cyfitter_cfg.c **** 	/* CYDEV_CLK_DIVIDER_A00 Starting address: CYDEV_CLK_DIVIDER_A00 */
 237:Generated_Source\PSoC4/cyfitter_cfg.c **** 	CY_SET_REG32((void *)(CYREG_CLK_DIVIDER_A00), 0x80000010u);
 207              		.loc 1 237 0
 208 0040 114A     		ldr	r2, .L9+32
 209 0042 124B     		ldr	r3, .L9+36
 210 0044 1A60     		str	r2, [r3]
ARM GAS  C:\Users\LUKEYO~1\AppData\Local\Temp\ccnYjAGW.s 			page 9


 238:Generated_Source\PSoC4/cyfitter_cfg.c **** 
 239:Generated_Source\PSoC4/cyfitter_cfg.c **** 	/* CYDEV_CLK_DIVIDER_B00 Starting address: CYDEV_CLK_DIVIDER_B00 */
 240:Generated_Source\PSoC4/cyfitter_cfg.c **** 	CY_SET_REG32((void *)(CYREG_CLK_DIVIDER_B00), 0x80000019u);
 211              		.loc 1 240 0
 212 0046 124A     		ldr	r2, .L9+40
 213 0048 124B     		ldr	r3, .L9+44
 214 004a 1A60     		str	r2, [r3]
 241:Generated_Source\PSoC4/cyfitter_cfg.c **** 
 242:Generated_Source\PSoC4/cyfitter_cfg.c **** 	/* CYDEV_CLK_DIVIDER_C00 Starting address: CYDEV_CLK_DIVIDER_C00 */
 243:Generated_Source\PSoC4/cyfitter_cfg.c **** 	CY_SET_REG32((void *)(CYREG_CLK_DIVIDER_C00), 0x80005DBFu);
 215              		.loc 1 243 0
 216 004c 124A     		ldr	r2, .L9+48
 217 004e 134B     		ldr	r3, .L9+52
 218 0050 1A60     		str	r2, [r3]
 244:Generated_Source\PSoC4/cyfitter_cfg.c **** 
 245:Generated_Source\PSoC4/cyfitter_cfg.c **** 	(void)CyIntSetVector(9u, &CySysWdtIsr);
 219              		.loc 1 245 0
 220 0052 1349     		ldr	r1, .L9+56
 221 0054 0920     		movs	r0, #9
 222 0056 FFF7FEFF 		bl	CyIntSetVector
 223              	.LVL18:
 246:Generated_Source\PSoC4/cyfitter_cfg.c **** 	CyIntEnable(9u);
 224              		.loc 1 246 0
 225 005a 0920     		movs	r0, #9
 226 005c FFF7FEFF 		bl	CyIntEnable
 227              	.LVL19:
 247:Generated_Source\PSoC4/cyfitter_cfg.c **** 	CY_SET_REG32((void *)(CYREG_WDT_CONFIG), 0x00000000u);
 228              		.loc 1 247 0
 229 0060 104B     		ldr	r3, .L9+60
 230 0062 1D60     		str	r5, [r3]
 248:Generated_Source\PSoC4/cyfitter_cfg.c **** }
 231              		.loc 1 248 0
 232              		@ sp needed
 233 0064 70BD     		pop	{r4, r5, r6, pc}
 234              	.L10:
 235 0066 C046     		.align	2
 236              	.L9:
 237 0068 00010B40 		.word	1074462976
 238 006c FFFFFBFF 		.word	-262145
 239 0070 06000080 		.word	-2147483642
 240 0074 04010B40 		.word	1074462980
 241 0078 08020240 		.word	1073873416
 242 007c 20020240 		.word	1073873440
 243 0080 30020240 		.word	1073873456
 244 0084 08010B40 		.word	1074462984
 245 0088 10000080 		.word	-2147483632
 246 008c 00000240 		.word	1073872896
 247 0090 19000080 		.word	-2147483623
 248 0094 40000240 		.word	1073872960
 249 0098 BF5D0080 		.word	-2147459649
 250 009c 80000240 		.word	1073873024
 251 00a0 00000000 		.word	CySysWdtIsr
 252 00a4 0C020B40 		.word	1074463244
 253              		.cfi_endproc
 254              	.LFE4:
 255              		.size	ClockSetup, .-ClockSetup
 256              		.align	2
ARM GAS  C:\Users\LUKEYO~1\AppData\Local\Temp\ccnYjAGW.s 			page 10


 257              		.global	cyfitter_cfg
 258              		.code	16
 259              		.thumb_func
 260              		.type	cyfitter_cfg, %function
 261              	cyfitter_cfg:
 262              	.LFB6:
 249:Generated_Source\PSoC4/cyfitter_cfg.c **** 
 250:Generated_Source\PSoC4/cyfitter_cfg.c **** 
 251:Generated_Source\PSoC4/cyfitter_cfg.c **** /* Analog API Functions */
 252:Generated_Source\PSoC4/cyfitter_cfg.c **** 
 253:Generated_Source\PSoC4/cyfitter_cfg.c **** 
 254:Generated_Source\PSoC4/cyfitter_cfg.c **** /*******************************************************************************
 255:Generated_Source\PSoC4/cyfitter_cfg.c **** * Function Name: AnalogSetDefault
 256:Generated_Source\PSoC4/cyfitter_cfg.c **** ********************************************************************************
 257:Generated_Source\PSoC4/cyfitter_cfg.c **** *
 258:Generated_Source\PSoC4/cyfitter_cfg.c **** * Summary:
 259:Generated_Source\PSoC4/cyfitter_cfg.c **** *  Sets up the analog portions of the chip to default values based on chip
 260:Generated_Source\PSoC4/cyfitter_cfg.c **** *  configuration options from the project.
 261:Generated_Source\PSoC4/cyfitter_cfg.c **** *
 262:Generated_Source\PSoC4/cyfitter_cfg.c **** * Parameters:
 263:Generated_Source\PSoC4/cyfitter_cfg.c **** *  void
 264:Generated_Source\PSoC4/cyfitter_cfg.c **** *
 265:Generated_Source\PSoC4/cyfitter_cfg.c **** * Return:
 266:Generated_Source\PSoC4/cyfitter_cfg.c **** *  void
 267:Generated_Source\PSoC4/cyfitter_cfg.c **** *
 268:Generated_Source\PSoC4/cyfitter_cfg.c **** *******************************************************************************/
 269:Generated_Source\PSoC4/cyfitter_cfg.c **** static void AnalogSetDefault(void);
 270:Generated_Source\PSoC4/cyfitter_cfg.c **** static void AnalogSetDefault(void)
 271:Generated_Source\PSoC4/cyfitter_cfg.c **** {
 272:Generated_Source\PSoC4/cyfitter_cfg.c **** }
 273:Generated_Source\PSoC4/cyfitter_cfg.c **** 
 274:Generated_Source\PSoC4/cyfitter_cfg.c **** 
 275:Generated_Source\PSoC4/cyfitter_cfg.c **** 
 276:Generated_Source\PSoC4/cyfitter_cfg.c **** 
 277:Generated_Source\PSoC4/cyfitter_cfg.c **** /*******************************************************************************
 278:Generated_Source\PSoC4/cyfitter_cfg.c **** * Function Name: cyfitter_cfg
 279:Generated_Source\PSoC4/cyfitter_cfg.c **** ********************************************************************************
 280:Generated_Source\PSoC4/cyfitter_cfg.c **** * Summary:
 281:Generated_Source\PSoC4/cyfitter_cfg.c **** *  This function is called by the start-up code for the selected device. It
 282:Generated_Source\PSoC4/cyfitter_cfg.c **** *  performs all of the necessary device configuration based on the design
 283:Generated_Source\PSoC4/cyfitter_cfg.c **** *  settings.  This includes settings from the Design Wide Resources (DWR) such
 284:Generated_Source\PSoC4/cyfitter_cfg.c **** *  as Clocks and Pins as well as any component configuration that is necessary.
 285:Generated_Source\PSoC4/cyfitter_cfg.c **** *
 286:Generated_Source\PSoC4/cyfitter_cfg.c **** * Parameters:
 287:Generated_Source\PSoC4/cyfitter_cfg.c **** *   void
 288:Generated_Source\PSoC4/cyfitter_cfg.c **** *
 289:Generated_Source\PSoC4/cyfitter_cfg.c **** * Return:
 290:Generated_Source\PSoC4/cyfitter_cfg.c **** *   void
 291:Generated_Source\PSoC4/cyfitter_cfg.c **** *
 292:Generated_Source\PSoC4/cyfitter_cfg.c **** *******************************************************************************/
 293:Generated_Source\PSoC4/cyfitter_cfg.c **** CY_CFG_SECTION
 294:Generated_Source\PSoC4/cyfitter_cfg.c **** void cyfitter_cfg(void)
 295:Generated_Source\PSoC4/cyfitter_cfg.c **** {
 263              		.loc 1 295 0
 264              		.cfi_startproc
 265              		@ args = 0, pretend = 0, frame = 0
 266              		@ frame_needed = 0, uses_anonymous_args = 0
ARM GAS  C:\Users\LUKEYO~1\AppData\Local\Temp\ccnYjAGW.s 			page 11


 267 00a8 70B5     		push	{r4, r5, r6, lr}
 268              		.cfi_def_cfa_offset 16
 269              		.cfi_offset 4, -16
 270              		.cfi_offset 5, -12
 271              		.cfi_offset 6, -8
 272              		.cfi_offset 14, -4
 296:Generated_Source\PSoC4/cyfitter_cfg.c **** 	/* Disable interrupts by default. Let user enable if/when they want. */
 297:Generated_Source\PSoC4/cyfitter_cfg.c **** 	CyGlobalIntDisable;
 273              		.loc 1 297 0
 274              		.syntax divided
 275              	@ 297 "Generated_Source\PSoC4\cyfitter_cfg.c" 1
 276 00aa 72B6     		CPSID   i
 277              	@ 0 "" 2
 298:Generated_Source\PSoC4/cyfitter_cfg.c **** 
 299:Generated_Source\PSoC4/cyfitter_cfg.c **** 	/* Enable the clock in the interrupt controller for the routed interrupts */
 300:Generated_Source\PSoC4/cyfitter_cfg.c **** 	CY_SET_REG8((void *)CYREG_UDB_UDBIF_INT_CLK_CTL, 0x01u);
 278              		.loc 1 300 0
 279              		.thumb
 280              		.syntax unified
 281 00ac 0122     		movs	r2, #1
 282 00ae 3D4B     		ldr	r3, .L16
 283 00b0 1A70     		strb	r2, [r3]
 284              	.LVL20:
 285              	.LBB3:
 301:Generated_Source\PSoC4/cyfitter_cfg.c **** 	{
 302:Generated_Source\PSoC4/cyfitter_cfg.c **** 		static const uint32 CYCODE cy_cfg_addr_table[] = {
 303:Generated_Source\PSoC4/cyfitter_cfg.c **** 			0x400F0003u, /* Base address: 0x400F0000 Count: 3 */
 304:Generated_Source\PSoC4/cyfitter_cfg.c **** 			0x400F306Au, /* Base address: 0x400F3000 Count: 106 */
 305:Generated_Source\PSoC4/cyfitter_cfg.c **** 			0x400F313Du, /* Base address: 0x400F3100 Count: 61 */
 306:Generated_Source\PSoC4/cyfitter_cfg.c **** 			0x400F3213u, /* Base address: 0x400F3200 Count: 19 */
 307:Generated_Source\PSoC4/cyfitter_cfg.c **** 			0x400F334Cu, /* Base address: 0x400F3300 Count: 76 */
 308:Generated_Source\PSoC4/cyfitter_cfg.c **** 			0x400F4007u, /* Base address: 0x400F4000 Count: 7 */
 309:Generated_Source\PSoC4/cyfitter_cfg.c **** 			0x400F410Au, /* Base address: 0x400F4100 Count: 10 */
 310:Generated_Source\PSoC4/cyfitter_cfg.c **** 			0x400F6002u, /* Base address: 0x400F6000 Count: 2 */
 311:Generated_Source\PSoC4/cyfitter_cfg.c **** 		};
 312:Generated_Source\PSoC4/cyfitter_cfg.c **** 
 313:Generated_Source\PSoC4/cyfitter_cfg.c **** 		static const cy_cfg_addrvalue_t CYCODE cy_cfg_data_table[] = {
 314:Generated_Source\PSoC4/cyfitter_cfg.c **** 			{0x81u, 0x0Fu},
 315:Generated_Source\PSoC4/cyfitter_cfg.c **** 			{0x82u, 0x72u},
 316:Generated_Source\PSoC4/cyfitter_cfg.c **** 			{0x83u, 0x38u},
 317:Generated_Source\PSoC4/cyfitter_cfg.c **** 			{0x02u, 0x20u},
 318:Generated_Source\PSoC4/cyfitter_cfg.c **** 			{0x04u, 0x10u},
 319:Generated_Source\PSoC4/cyfitter_cfg.c **** 			{0x05u, 0x2Cu},
 320:Generated_Source\PSoC4/cyfitter_cfg.c **** 			{0x06u, 0xACu},
 321:Generated_Source\PSoC4/cyfitter_cfg.c **** 			{0x07u, 0x43u},
 322:Generated_Source\PSoC4/cyfitter_cfg.c **** 			{0x0Cu, 0x0Cu},
 323:Generated_Source\PSoC4/cyfitter_cfg.c **** 			{0x0Du, 0x80u},
 324:Generated_Source\PSoC4/cyfitter_cfg.c **** 			{0x0Eu, 0x71u},
 325:Generated_Source\PSoC4/cyfitter_cfg.c **** 			{0x0Fu, 0x13u},
 326:Generated_Source\PSoC4/cyfitter_cfg.c **** 			{0x13u, 0x0Cu},
 327:Generated_Source\PSoC4/cyfitter_cfg.c **** 			{0x16u, 0x03u},
 328:Generated_Source\PSoC4/cyfitter_cfg.c **** 			{0x17u, 0x08u},
 329:Generated_Source\PSoC4/cyfitter_cfg.c **** 			{0x18u, 0xDCu},
 330:Generated_Source\PSoC4/cyfitter_cfg.c **** 			{0x19u, 0x71u},
 331:Generated_Source\PSoC4/cyfitter_cfg.c **** 			{0x1Au, 0x22u},
 332:Generated_Source\PSoC4/cyfitter_cfg.c **** 			{0x1Bu, 0x06u},
 333:Generated_Source\PSoC4/cyfitter_cfg.c **** 			{0x1Cu, 0x09u},
ARM GAS  C:\Users\LUKEYO~1\AppData\Local\Temp\ccnYjAGW.s 			page 12


 334:Generated_Source\PSoC4/cyfitter_cfg.c **** 			{0x1Eu, 0xD0u},
 335:Generated_Source\PSoC4/cyfitter_cfg.c **** 			{0x21u, 0x71u},
 336:Generated_Source\PSoC4/cyfitter_cfg.c **** 			{0x23u, 0x0Eu},
 337:Generated_Source\PSoC4/cyfitter_cfg.c **** 			{0x24u, 0x14u},
 338:Generated_Source\PSoC4/cyfitter_cfg.c **** 			{0x28u, 0x10u},
 339:Generated_Source\PSoC4/cyfitter_cfg.c **** 			{0x2Au, 0x40u},
 340:Generated_Source\PSoC4/cyfitter_cfg.c **** 			{0x30u, 0xE0u},
 341:Generated_Source\PSoC4/cyfitter_cfg.c **** 			{0x31u, 0xC0u},
 342:Generated_Source\PSoC4/cyfitter_cfg.c **** 			{0x32u, 0x1Fu},
 343:Generated_Source\PSoC4/cyfitter_cfg.c **** 			{0x33u, 0x30u},
 344:Generated_Source\PSoC4/cyfitter_cfg.c **** 			{0x35u, 0x0Fu},
 345:Generated_Source\PSoC4/cyfitter_cfg.c **** 			{0x37u, 0x20u},
 346:Generated_Source\PSoC4/cyfitter_cfg.c **** 			{0x39u, 0x8Au},
 347:Generated_Source\PSoC4/cyfitter_cfg.c **** 			{0x3Au, 0x02u},
 348:Generated_Source\PSoC4/cyfitter_cfg.c **** 			{0x3Bu, 0x20u},
 349:Generated_Source\PSoC4/cyfitter_cfg.c **** 			{0x3Fu, 0x04u},
 350:Generated_Source\PSoC4/cyfitter_cfg.c **** 			{0x40u, 0x03u},
 351:Generated_Source\PSoC4/cyfitter_cfg.c **** 			{0x47u, 0x04u},
 352:Generated_Source\PSoC4/cyfitter_cfg.c **** 			{0x49u, 0xFFu},
 353:Generated_Source\PSoC4/cyfitter_cfg.c **** 			{0x4Au, 0x07u},
 354:Generated_Source\PSoC4/cyfitter_cfg.c **** 			{0x4Bu, 0xFFu},
 355:Generated_Source\PSoC4/cyfitter_cfg.c **** 			{0x4Cu, 0x40u},
 356:Generated_Source\PSoC4/cyfitter_cfg.c **** 			{0x4Du, 0x20u},
 357:Generated_Source\PSoC4/cyfitter_cfg.c **** 			{0x4Eu, 0xF0u},
 358:Generated_Source\PSoC4/cyfitter_cfg.c **** 			{0x4Fu, 0x05u},
 359:Generated_Source\PSoC4/cyfitter_cfg.c **** 			{0x50u, 0x08u},
 360:Generated_Source\PSoC4/cyfitter_cfg.c **** 			{0x58u, 0x04u},
 361:Generated_Source\PSoC4/cyfitter_cfg.c **** 			{0x59u, 0x04u},
 362:Generated_Source\PSoC4/cyfitter_cfg.c **** 			{0x5Au, 0x04u},
 363:Generated_Source\PSoC4/cyfitter_cfg.c **** 			{0x5Fu, 0x01u},
 364:Generated_Source\PSoC4/cyfitter_cfg.c **** 			{0x60u, 0x40u},
 365:Generated_Source\PSoC4/cyfitter_cfg.c **** 			{0x61u, 0xA8u},
 366:Generated_Source\PSoC4/cyfitter_cfg.c **** 			{0x62u, 0x40u},
 367:Generated_Source\PSoC4/cyfitter_cfg.c **** 			{0x63u, 0x20u},
 368:Generated_Source\PSoC4/cyfitter_cfg.c **** 			{0x82u, 0x15u},
 369:Generated_Source\PSoC4/cyfitter_cfg.c **** 			{0x84u, 0xE0u},
 370:Generated_Source\PSoC4/cyfitter_cfg.c **** 			{0x88u, 0xE0u},
 371:Generated_Source\PSoC4/cyfitter_cfg.c **** 			{0x89u, 0x13u},
 372:Generated_Source\PSoC4/cyfitter_cfg.c **** 			{0x8Cu, 0x80u},
 373:Generated_Source\PSoC4/cyfitter_cfg.c **** 			{0x8Du, 0x10u},
 374:Generated_Source\PSoC4/cyfitter_cfg.c **** 			{0x8Eu, 0x40u},
 375:Generated_Source\PSoC4/cyfitter_cfg.c **** 			{0x90u, 0x20u},
 376:Generated_Source\PSoC4/cyfitter_cfg.c **** 			{0x92u, 0x40u},
 377:Generated_Source\PSoC4/cyfitter_cfg.c **** 			{0x94u, 0x40u},
 378:Generated_Source\PSoC4/cyfitter_cfg.c **** 			{0x95u, 0x13u},
 379:Generated_Source\PSoC4/cyfitter_cfg.c **** 			{0x96u, 0xA0u},
 380:Generated_Source\PSoC4/cyfitter_cfg.c **** 			{0x98u, 0x03u},
 381:Generated_Source\PSoC4/cyfitter_cfg.c **** 			{0x99u, 0x02u},
 382:Generated_Source\PSoC4/cyfitter_cfg.c **** 			{0x9Au, 0x14u},
 383:Generated_Source\PSoC4/cyfitter_cfg.c **** 			{0x9Bu, 0x05u},
 384:Generated_Source\PSoC4/cyfitter_cfg.c **** 			{0x9Cu, 0x13u},
 385:Generated_Source\PSoC4/cyfitter_cfg.c **** 			{0x9Eu, 0x04u},
 386:Generated_Source\PSoC4/cyfitter_cfg.c **** 			{0xA2u, 0x08u},
 387:Generated_Source\PSoC4/cyfitter_cfg.c **** 			{0xA4u, 0x13u},
 388:Generated_Source\PSoC4/cyfitter_cfg.c **** 			{0xA6u, 0x0Cu},
 389:Generated_Source\PSoC4/cyfitter_cfg.c **** 			{0xA8u, 0x0Au},
 390:Generated_Source\PSoC4/cyfitter_cfg.c **** 			{0xAAu, 0x14u},
ARM GAS  C:\Users\LUKEYO~1\AppData\Local\Temp\ccnYjAGW.s 			page 13


 391:Generated_Source\PSoC4/cyfitter_cfg.c **** 			{0xABu, 0x08u},
 392:Generated_Source\PSoC4/cyfitter_cfg.c **** 			{0xADu, 0x01u},
 393:Generated_Source\PSoC4/cyfitter_cfg.c **** 			{0xAFu, 0x06u},
 394:Generated_Source\PSoC4/cyfitter_cfg.c **** 			{0xB0u, 0x10u},
 395:Generated_Source\PSoC4/cyfitter_cfg.c **** 			{0xB1u, 0x10u},
 396:Generated_Source\PSoC4/cyfitter_cfg.c **** 			{0xB2u, 0xE0u},
 397:Generated_Source\PSoC4/cyfitter_cfg.c **** 			{0xB3u, 0x03u},
 398:Generated_Source\PSoC4/cyfitter_cfg.c **** 			{0xB4u, 0x0Fu},
 399:Generated_Source\PSoC4/cyfitter_cfg.c **** 			{0xB7u, 0x0Cu},
 400:Generated_Source\PSoC4/cyfitter_cfg.c **** 			{0xBAu, 0x20u},
 401:Generated_Source\PSoC4/cyfitter_cfg.c **** 			{0xBEu, 0x01u},
 402:Generated_Source\PSoC4/cyfitter_cfg.c **** 			{0xBFu, 0x40u},
 403:Generated_Source\PSoC4/cyfitter_cfg.c **** 			{0xC0u, 0x24u},
 404:Generated_Source\PSoC4/cyfitter_cfg.c **** 			{0xC1u, 0x01u},
 405:Generated_Source\PSoC4/cyfitter_cfg.c **** 			{0xC5u, 0x0Cu},
 406:Generated_Source\PSoC4/cyfitter_cfg.c **** 			{0xC6u, 0xBEu},
 407:Generated_Source\PSoC4/cyfitter_cfg.c **** 			{0xC8u, 0x0Du},
 408:Generated_Source\PSoC4/cyfitter_cfg.c **** 			{0xC9u, 0xFFu},
 409:Generated_Source\PSoC4/cyfitter_cfg.c **** 			{0xCAu, 0xFFu},
 410:Generated_Source\PSoC4/cyfitter_cfg.c **** 			{0xCBu, 0xFFu},
 411:Generated_Source\PSoC4/cyfitter_cfg.c **** 			{0xCEu, 0xF0u},
 412:Generated_Source\PSoC4/cyfitter_cfg.c **** 			{0xCFu, 0x44u},
 413:Generated_Source\PSoC4/cyfitter_cfg.c **** 			{0xD0u, 0x0Cu},
 414:Generated_Source\PSoC4/cyfitter_cfg.c **** 			{0xD4u, 0x01u},
 415:Generated_Source\PSoC4/cyfitter_cfg.c **** 			{0xD8u, 0x04u},
 416:Generated_Source\PSoC4/cyfitter_cfg.c **** 			{0xD9u, 0x04u},
 417:Generated_Source\PSoC4/cyfitter_cfg.c **** 			{0xDAu, 0x04u},
 418:Generated_Source\PSoC4/cyfitter_cfg.c **** 			{0xDBu, 0x04u},
 419:Generated_Source\PSoC4/cyfitter_cfg.c **** 			{0xDFu, 0x01u},
 420:Generated_Source\PSoC4/cyfitter_cfg.c **** 			{0xE6u, 0xC0u},
 421:Generated_Source\PSoC4/cyfitter_cfg.c **** 			{0xEAu, 0x40u},
 422:Generated_Source\PSoC4/cyfitter_cfg.c **** 			{0xEBu, 0x02u},
 423:Generated_Source\PSoC4/cyfitter_cfg.c **** 			{0x00u, 0x40u},
 424:Generated_Source\PSoC4/cyfitter_cfg.c **** 			{0x02u, 0x40u},
 425:Generated_Source\PSoC4/cyfitter_cfg.c **** 			{0x03u, 0x10u},
 426:Generated_Source\PSoC4/cyfitter_cfg.c **** 			{0x04u, 0x28u},
 427:Generated_Source\PSoC4/cyfitter_cfg.c **** 			{0x06u, 0x60u},
 428:Generated_Source\PSoC4/cyfitter_cfg.c **** 			{0x07u, 0x05u},
 429:Generated_Source\PSoC4/cyfitter_cfg.c **** 			{0x09u, 0x20u},
 430:Generated_Source\PSoC4/cyfitter_cfg.c **** 			{0x0Au, 0x12u},
 431:Generated_Source\PSoC4/cyfitter_cfg.c **** 			{0x0Du, 0x02u},
 432:Generated_Source\PSoC4/cyfitter_cfg.c **** 			{0x0Eu, 0x20u},
 433:Generated_Source\PSoC4/cyfitter_cfg.c **** 			{0x0Fu, 0x06u},
 434:Generated_Source\PSoC4/cyfitter_cfg.c **** 			{0x10u, 0x28u},
 435:Generated_Source\PSoC4/cyfitter_cfg.c **** 			{0x14u, 0x10u},
 436:Generated_Source\PSoC4/cyfitter_cfg.c **** 			{0x15u, 0x22u},
 437:Generated_Source\PSoC4/cyfitter_cfg.c **** 			{0x18u, 0x40u},
 438:Generated_Source\PSoC4/cyfitter_cfg.c **** 			{0x19u, 0x01u},
 439:Generated_Source\PSoC4/cyfitter_cfg.c **** 			{0x1Au, 0x30u},
 440:Generated_Source\PSoC4/cyfitter_cfg.c **** 			{0x1Bu, 0x01u},
 441:Generated_Source\PSoC4/cyfitter_cfg.c **** 			{0x1Du, 0x10u},
 442:Generated_Source\PSoC4/cyfitter_cfg.c **** 			{0x1Eu, 0x60u},
 443:Generated_Source\PSoC4/cyfitter_cfg.c **** 			{0x1Fu, 0x0Cu},
 444:Generated_Source\PSoC4/cyfitter_cfg.c **** 			{0x20u, 0x06u},
 445:Generated_Source\PSoC4/cyfitter_cfg.c **** 			{0x21u, 0x35u},
 446:Generated_Source\PSoC4/cyfitter_cfg.c **** 			{0x22u, 0x01u},
 447:Generated_Source\PSoC4/cyfitter_cfg.c **** 			{0x26u, 0x04u},
ARM GAS  C:\Users\LUKEYO~1\AppData\Local\Temp\ccnYjAGW.s 			page 14


 448:Generated_Source\PSoC4/cyfitter_cfg.c **** 			{0x27u, 0x62u},
 449:Generated_Source\PSoC4/cyfitter_cfg.c **** 			{0x29u, 0x01u},
 450:Generated_Source\PSoC4/cyfitter_cfg.c **** 			{0x2Au, 0x02u},
 451:Generated_Source\PSoC4/cyfitter_cfg.c **** 			{0x2Eu, 0x80u},
 452:Generated_Source\PSoC4/cyfitter_cfg.c **** 			{0x2Fu, 0x04u},
 453:Generated_Source\PSoC4/cyfitter_cfg.c **** 			{0x30u, 0x18u},
 454:Generated_Source\PSoC4/cyfitter_cfg.c **** 			{0x31u, 0x10u},
 455:Generated_Source\PSoC4/cyfitter_cfg.c **** 			{0x32u, 0x01u},
 456:Generated_Source\PSoC4/cyfitter_cfg.c **** 			{0x33u, 0x10u},
 457:Generated_Source\PSoC4/cyfitter_cfg.c **** 			{0x37u, 0x24u},
 458:Generated_Source\PSoC4/cyfitter_cfg.c **** 			{0x38u, 0x84u},
 459:Generated_Source\PSoC4/cyfitter_cfg.c **** 			{0x3Du, 0x80u},
 460:Generated_Source\PSoC4/cyfitter_cfg.c **** 			{0x3Eu, 0x20u},
 461:Generated_Source\PSoC4/cyfitter_cfg.c **** 			{0x41u, 0x04u},
 462:Generated_Source\PSoC4/cyfitter_cfg.c **** 			{0x46u, 0x42u},
 463:Generated_Source\PSoC4/cyfitter_cfg.c **** 			{0x47u, 0x10u},
 464:Generated_Source\PSoC4/cyfitter_cfg.c **** 			{0x4Fu, 0x04u},
 465:Generated_Source\PSoC4/cyfitter_cfg.c **** 			{0x50u, 0x48u},
 466:Generated_Source\PSoC4/cyfitter_cfg.c **** 			{0x52u, 0x40u},
 467:Generated_Source\PSoC4/cyfitter_cfg.c **** 			{0x54u, 0x60u},
 468:Generated_Source\PSoC4/cyfitter_cfg.c **** 			{0x57u, 0x80u},
 469:Generated_Source\PSoC4/cyfitter_cfg.c **** 			{0x5Du, 0x21u},
 470:Generated_Source\PSoC4/cyfitter_cfg.c **** 			{0x5Eu, 0x40u},
 471:Generated_Source\PSoC4/cyfitter_cfg.c **** 			{0x5Fu, 0x08u},
 472:Generated_Source\PSoC4/cyfitter_cfg.c **** 			{0x65u, 0x20u},
 473:Generated_Source\PSoC4/cyfitter_cfg.c **** 			{0x67u, 0x04u},
 474:Generated_Source\PSoC4/cyfitter_cfg.c **** 			{0x79u, 0x01u},
 475:Generated_Source\PSoC4/cyfitter_cfg.c **** 			{0x7Bu, 0x80u},
 476:Generated_Source\PSoC4/cyfitter_cfg.c **** 			{0xC0u, 0xFDu},
 477:Generated_Source\PSoC4/cyfitter_cfg.c **** 			{0xC2u, 0xF7u},
 478:Generated_Source\PSoC4/cyfitter_cfg.c **** 			{0xC4u, 0x76u},
 479:Generated_Source\PSoC4/cyfitter_cfg.c **** 			{0xCAu, 0x31u},
 480:Generated_Source\PSoC4/cyfitter_cfg.c **** 			{0xCCu, 0x67u},
 481:Generated_Source\PSoC4/cyfitter_cfg.c **** 			{0xCEu, 0x3Au},
 482:Generated_Source\PSoC4/cyfitter_cfg.c **** 			{0xD0u, 0xB2u},
 483:Generated_Source\PSoC4/cyfitter_cfg.c **** 			{0xD6u, 0xF0u},
 484:Generated_Source\PSoC4/cyfitter_cfg.c **** 			{0x86u, 0x02u},
 485:Generated_Source\PSoC4/cyfitter_cfg.c **** 			{0x8Eu, 0x01u},
 486:Generated_Source\PSoC4/cyfitter_cfg.c **** 			{0x92u, 0x02u},
 487:Generated_Source\PSoC4/cyfitter_cfg.c **** 			{0x99u, 0x01u},
 488:Generated_Source\PSoC4/cyfitter_cfg.c **** 			{0x9Eu, 0x04u},
 489:Generated_Source\PSoC4/cyfitter_cfg.c **** 			{0xA6u, 0x01u},
 490:Generated_Source\PSoC4/cyfitter_cfg.c **** 			{0xB0u, 0x01u},
 491:Generated_Source\PSoC4/cyfitter_cfg.c **** 			{0xB1u, 0x01u},
 492:Generated_Source\PSoC4/cyfitter_cfg.c **** 			{0xB4u, 0x02u},
 493:Generated_Source\PSoC4/cyfitter_cfg.c **** 			{0xB6u, 0x04u},
 494:Generated_Source\PSoC4/cyfitter_cfg.c **** 			{0xBAu, 0x08u},
 495:Generated_Source\PSoC4/cyfitter_cfg.c **** 			{0xBEu, 0x11u},
 496:Generated_Source\PSoC4/cyfitter_cfg.c **** 			{0xBFu, 0x01u},
 497:Generated_Source\PSoC4/cyfitter_cfg.c **** 			{0xD4u, 0x18u},
 498:Generated_Source\PSoC4/cyfitter_cfg.c **** 			{0xD6u, 0x04u},
 499:Generated_Source\PSoC4/cyfitter_cfg.c **** 			{0xD8u, 0x04u},
 500:Generated_Source\PSoC4/cyfitter_cfg.c **** 			{0xD9u, 0x04u},
 501:Generated_Source\PSoC4/cyfitter_cfg.c **** 			{0xDBu, 0x04u},
 502:Generated_Source\PSoC4/cyfitter_cfg.c **** 			{0xDFu, 0x01u},
 503:Generated_Source\PSoC4/cyfitter_cfg.c **** 			{0x00u, 0x40u},
 504:Generated_Source\PSoC4/cyfitter_cfg.c **** 			{0x01u, 0x40u},
ARM GAS  C:\Users\LUKEYO~1\AppData\Local\Temp\ccnYjAGW.s 			page 15


 505:Generated_Source\PSoC4/cyfitter_cfg.c **** 			{0x03u, 0x20u},
 506:Generated_Source\PSoC4/cyfitter_cfg.c **** 			{0x05u, 0x10u},
 507:Generated_Source\PSoC4/cyfitter_cfg.c **** 			{0x06u, 0x02u},
 508:Generated_Source\PSoC4/cyfitter_cfg.c **** 			{0x07u, 0x50u},
 509:Generated_Source\PSoC4/cyfitter_cfg.c **** 			{0x09u, 0x01u},
 510:Generated_Source\PSoC4/cyfitter_cfg.c **** 			{0x0Bu, 0x01u},
 511:Generated_Source\PSoC4/cyfitter_cfg.c **** 			{0x0Eu, 0x18u},
 512:Generated_Source\PSoC4/cyfitter_cfg.c **** 			{0x0Fu, 0x41u},
 513:Generated_Source\PSoC4/cyfitter_cfg.c **** 			{0x10u, 0x20u},
 514:Generated_Source\PSoC4/cyfitter_cfg.c **** 			{0x16u, 0x24u},
 515:Generated_Source\PSoC4/cyfitter_cfg.c **** 			{0x17u, 0x01u},
 516:Generated_Source\PSoC4/cyfitter_cfg.c **** 			{0x18u, 0x04u},
 517:Generated_Source\PSoC4/cyfitter_cfg.c **** 			{0x19u, 0x80u},
 518:Generated_Source\PSoC4/cyfitter_cfg.c **** 			{0x1Au, 0x10u},
 519:Generated_Source\PSoC4/cyfitter_cfg.c **** 			{0x1Bu, 0x09u},
 520:Generated_Source\PSoC4/cyfitter_cfg.c **** 			{0x1Cu, 0x40u},
 521:Generated_Source\PSoC4/cyfitter_cfg.c **** 			{0x1Du, 0x30u},
 522:Generated_Source\PSoC4/cyfitter_cfg.c **** 			{0x1Eu, 0x21u},
 523:Generated_Source\PSoC4/cyfitter_cfg.c **** 			{0x1Fu, 0x10u},
 524:Generated_Source\PSoC4/cyfitter_cfg.c **** 			{0x21u, 0x01u},
 525:Generated_Source\PSoC4/cyfitter_cfg.c **** 			{0x24u, 0x10u},
 526:Generated_Source\PSoC4/cyfitter_cfg.c **** 			{0x25u, 0x01u},
 527:Generated_Source\PSoC4/cyfitter_cfg.c **** 			{0x26u, 0x80u},
 528:Generated_Source\PSoC4/cyfitter_cfg.c **** 			{0x27u, 0x09u},
 529:Generated_Source\PSoC4/cyfitter_cfg.c **** 			{0x2Du, 0xA0u},
 530:Generated_Source\PSoC4/cyfitter_cfg.c **** 			{0x2Eu, 0x02u},
 531:Generated_Source\PSoC4/cyfitter_cfg.c **** 			{0x2Fu, 0x18u},
 532:Generated_Source\PSoC4/cyfitter_cfg.c **** 			{0x32u, 0x10u},
 533:Generated_Source\PSoC4/cyfitter_cfg.c **** 			{0x34u, 0x01u},
 534:Generated_Source\PSoC4/cyfitter_cfg.c **** 			{0x36u, 0x90u},
 535:Generated_Source\PSoC4/cyfitter_cfg.c **** 			{0x37u, 0x10u},
 536:Generated_Source\PSoC4/cyfitter_cfg.c **** 			{0x3Cu, 0x80u},
 537:Generated_Source\PSoC4/cyfitter_cfg.c **** 			{0x3Eu, 0x28u},
 538:Generated_Source\PSoC4/cyfitter_cfg.c **** 			{0x3Fu, 0x01u},
 539:Generated_Source\PSoC4/cyfitter_cfg.c **** 			{0x44u, 0x01u},
 540:Generated_Source\PSoC4/cyfitter_cfg.c **** 			{0x45u, 0x20u},
 541:Generated_Source\PSoC4/cyfitter_cfg.c **** 			{0x47u, 0x42u},
 542:Generated_Source\PSoC4/cyfitter_cfg.c **** 			{0x4Cu, 0x20u},
 543:Generated_Source\PSoC4/cyfitter_cfg.c **** 			{0x4Du, 0x60u},
 544:Generated_Source\PSoC4/cyfitter_cfg.c **** 			{0x57u, 0x20u},
 545:Generated_Source\PSoC4/cyfitter_cfg.c **** 			{0x5Au, 0x01u},
 546:Generated_Source\PSoC4/cyfitter_cfg.c **** 			{0x5Cu, 0x10u},
 547:Generated_Source\PSoC4/cyfitter_cfg.c **** 			{0x60u, 0x04u},
 548:Generated_Source\PSoC4/cyfitter_cfg.c **** 			{0x61u, 0x02u},
 549:Generated_Source\PSoC4/cyfitter_cfg.c **** 			{0x63u, 0x02u},
 550:Generated_Source\PSoC4/cyfitter_cfg.c **** 			{0x6Cu, 0x14u},
 551:Generated_Source\PSoC4/cyfitter_cfg.c **** 			{0x6Du, 0x80u},
 552:Generated_Source\PSoC4/cyfitter_cfg.c **** 			{0x76u, 0x2Eu},
 553:Generated_Source\PSoC4/cyfitter_cfg.c **** 			{0x81u, 0x02u},
 554:Generated_Source\PSoC4/cyfitter_cfg.c **** 			{0x85u, 0x01u},
 555:Generated_Source\PSoC4/cyfitter_cfg.c **** 			{0x92u, 0x20u},
 556:Generated_Source\PSoC4/cyfitter_cfg.c **** 			{0x93u, 0x41u},
 557:Generated_Source\PSoC4/cyfitter_cfg.c **** 			{0x94u, 0x28u},
 558:Generated_Source\PSoC4/cyfitter_cfg.c **** 			{0x9Bu, 0x42u},
 559:Generated_Source\PSoC4/cyfitter_cfg.c **** 			{0x9Fu, 0x08u},
 560:Generated_Source\PSoC4/cyfitter_cfg.c **** 			{0xA0u, 0x40u},
 561:Generated_Source\PSoC4/cyfitter_cfg.c **** 			{0xA2u, 0x04u},
ARM GAS  C:\Users\LUKEYO~1\AppData\Local\Temp\ccnYjAGW.s 			page 16


 562:Generated_Source\PSoC4/cyfitter_cfg.c **** 			{0xA5u, 0x40u},
 563:Generated_Source\PSoC4/cyfitter_cfg.c **** 			{0xA9u, 0x02u},
 564:Generated_Source\PSoC4/cyfitter_cfg.c **** 			{0xAAu, 0x80u},
 565:Generated_Source\PSoC4/cyfitter_cfg.c **** 			{0xABu, 0x01u},
 566:Generated_Source\PSoC4/cyfitter_cfg.c **** 			{0xACu, 0x01u},
 567:Generated_Source\PSoC4/cyfitter_cfg.c **** 			{0xAFu, 0x21u},
 568:Generated_Source\PSoC4/cyfitter_cfg.c **** 			{0xB3u, 0x48u},
 569:Generated_Source\PSoC4/cyfitter_cfg.c **** 			{0xC0u, 0xF5u},
 570:Generated_Source\PSoC4/cyfitter_cfg.c **** 			{0xC2u, 0xF9u},
 571:Generated_Source\PSoC4/cyfitter_cfg.c **** 			{0xC4u, 0x74u},
 572:Generated_Source\PSoC4/cyfitter_cfg.c **** 			{0xCAu, 0xF0u},
 573:Generated_Source\PSoC4/cyfitter_cfg.c **** 			{0xCCu, 0xB4u},
 574:Generated_Source\PSoC4/cyfitter_cfg.c **** 			{0xCEu, 0xF0u},
 575:Generated_Source\PSoC4/cyfitter_cfg.c **** 			{0xD0u, 0xB0u},
 576:Generated_Source\PSoC4/cyfitter_cfg.c **** 			{0xD2u, 0x30u},
 577:Generated_Source\PSoC4/cyfitter_cfg.c **** 			{0xD6u, 0x21u},
 578:Generated_Source\PSoC4/cyfitter_cfg.c **** 			{0xD8u, 0x0Du},
 579:Generated_Source\PSoC4/cyfitter_cfg.c **** 			{0x07u, 0x04u},
 580:Generated_Source\PSoC4/cyfitter_cfg.c **** 			{0x57u, 0x09u},
 581:Generated_Source\PSoC4/cyfitter_cfg.c **** 			{0x6Cu, 0x20u},
 582:Generated_Source\PSoC4/cyfitter_cfg.c **** 			{0xC0u, 0x80u},
 583:Generated_Source\PSoC4/cyfitter_cfg.c **** 			{0xD4u, 0x40u},
 584:Generated_Source\PSoC4/cyfitter_cfg.c **** 			{0xD6u, 0x20u},
 585:Generated_Source\PSoC4/cyfitter_cfg.c **** 			{0xDAu, 0x80u},
 586:Generated_Source\PSoC4/cyfitter_cfg.c **** 			{0x80u, 0x20u},
 587:Generated_Source\PSoC4/cyfitter_cfg.c **** 			{0x87u, 0x08u},
 588:Generated_Source\PSoC4/cyfitter_cfg.c **** 			{0xA4u, 0x20u},
 589:Generated_Source\PSoC4/cyfitter_cfg.c **** 			{0xA7u, 0x08u},
 590:Generated_Source\PSoC4/cyfitter_cfg.c **** 			{0xABu, 0x04u},
 591:Generated_Source\PSoC4/cyfitter_cfg.c **** 			{0xAFu, 0x01u},
 592:Generated_Source\PSoC4/cyfitter_cfg.c **** 			{0xE2u, 0x80u},
 593:Generated_Source\PSoC4/cyfitter_cfg.c **** 			{0xE6u, 0x40u},
 594:Generated_Source\PSoC4/cyfitter_cfg.c **** 			{0xE8u, 0x80u},
 595:Generated_Source\PSoC4/cyfitter_cfg.c **** 			{0xEEu, 0x10u},
 596:Generated_Source\PSoC4/cyfitter_cfg.c **** 			{0x10u, 0x01u},
 597:Generated_Source\PSoC4/cyfitter_cfg.c **** 			{0x11u, 0x01u},
 598:Generated_Source\PSoC4/cyfitter_cfg.c **** 		};
 599:Generated_Source\PSoC4/cyfitter_cfg.c **** 
 600:Generated_Source\PSoC4/cyfitter_cfg.c **** 
 601:Generated_Source\PSoC4/cyfitter_cfg.c **** 
 602:Generated_Source\PSoC4/cyfitter_cfg.c **** 		CYPACKED typedef struct {
 603:Generated_Source\PSoC4/cyfitter_cfg.c **** 			void CYFAR *address;
 604:Generated_Source\PSoC4/cyfitter_cfg.c **** 			uint16 size;
 605:Generated_Source\PSoC4/cyfitter_cfg.c **** 		} CYPACKED_ATTR cfg_memset_t;
 606:Generated_Source\PSoC4/cyfitter_cfg.c **** 
 607:Generated_Source\PSoC4/cyfitter_cfg.c **** 
 608:Generated_Source\PSoC4/cyfitter_cfg.c **** 		CYPACKED typedef struct {
 609:Generated_Source\PSoC4/cyfitter_cfg.c **** 			void CYFAR *dest;
 610:Generated_Source\PSoC4/cyfitter_cfg.c **** 			const void CYCODE *src;
 611:Generated_Source\PSoC4/cyfitter_cfg.c **** 			uint16 size;
 612:Generated_Source\PSoC4/cyfitter_cfg.c **** 		} CYPACKED_ATTR cfg_memcpy_t;
 613:Generated_Source\PSoC4/cyfitter_cfg.c **** 
 614:Generated_Source\PSoC4/cyfitter_cfg.c **** 		static const cfg_memset_t CYCODE cfg_memset_list[] = {
 615:Generated_Source\PSoC4/cyfitter_cfg.c **** 			/* address, size */
 616:Generated_Source\PSoC4/cyfitter_cfg.c **** 			{(void CYFAR *)(CYDEV_UDB_P0_U0_BASE), 512u},
 617:Generated_Source\PSoC4/cyfitter_cfg.c **** 			{(void CYFAR *)(CYDEV_UDB_P1_U1_BASE), 384u},
 618:Generated_Source\PSoC4/cyfitter_cfg.c **** 			{(void CYFAR *)(CYDEV_UDB_DSI0_BASE), 1024u},
ARM GAS  C:\Users\LUKEYO~1\AppData\Local\Temp\ccnYjAGW.s 			page 17


 619:Generated_Source\PSoC4/cyfitter_cfg.c **** 		};
 620:Generated_Source\PSoC4/cyfitter_cfg.c **** 
 621:Generated_Source\PSoC4/cyfitter_cfg.c **** 		/* UDB_0_0_1_CONFIG Address: CYDEV_UDB_P1_U0_BASE Size (bytes): 128 */
 622:Generated_Source\PSoC4/cyfitter_cfg.c **** 		static const uint8 CYCODE BS_UDB_0_0_1_CONFIG_VAL[] = {
 623:Generated_Source\PSoC4/cyfitter_cfg.c **** 			0x00u, 0x01u, 0xF3u, 0x00u, 0x0Fu, 0x08u, 0xF0u, 0x00u, 0xF3u, 0x18u, 0x0Cu, 0x00u, 0x08u, 0x80u
 624:Generated_Source\PSoC4/cyfitter_cfg.c **** 			0xC3u, 0x00u, 0x00u, 0x06u, 0xFFu, 0x00u, 0x00u, 0x00u, 0x82u, 0x39u, 0x00u, 0x42u, 0x41u, 0x39u
 625:Generated_Source\PSoC4/cyfitter_cfg.c **** 			0x1Cu, 0x10u, 0xE3u, 0x00u, 0x0Cu, 0x67u, 0x00u, 0x18u, 0x04u, 0x7Fu, 0x00u, 0x00u, 0x00u, 0x00u
 626:Generated_Source\PSoC4/cyfitter_cfg.c **** 			0x1Cu, 0x40u, 0x2Cu, 0x20u, 0x0Fu, 0x80u, 0xC0u, 0x1Fu, 0x00u, 0x02u, 0x28u, 0x80u, 0x00u, 0x00u
 627:Generated_Source\PSoC4/cyfitter_cfg.c **** 			0x21u, 0x06u, 0x05u, 0x00u, 0x04u, 0x0Cu, 0xE0u, 0x00u, 0x09u, 0xFFu, 0xFFu, 0xFFu, 0x62u, 0xA0u
 628:Generated_Source\PSoC4/cyfitter_cfg.c **** 			0x0Cu, 0x00u, 0x00u, 0x00u, 0x00u, 0x00u, 0x02u, 0x11u, 0x04u, 0x04u, 0x04u, 0x04u, 0x00u, 0x00u
 629:Generated_Source\PSoC4/cyfitter_cfg.c **** 			0x00u, 0x00u, 0x00u, 0x00u, 0x00u, 0x00u, 0x40u, 0x02u, 0x00u, 0x10u, 0x30u, 0x10u, 0x00u, 0x10u
 630:Generated_Source\PSoC4/cyfitter_cfg.c **** 			0x00u, 0x00u, 0x00u, 0x00u, 0x00u, 0x00u, 0x00u, 0x00u, 0x00u, 0x00u, 0x00u, 0x00u, 0x00u, 0x00u
 631:Generated_Source\PSoC4/cyfitter_cfg.c **** 
 632:Generated_Source\PSoC4/cyfitter_cfg.c **** 		static const cfg_memcpy_t CYCODE cfg_memcpy_list [] = {
 633:Generated_Source\PSoC4/cyfitter_cfg.c **** 			/* dest, src, size */
 634:Generated_Source\PSoC4/cyfitter_cfg.c **** 			{(void CYFAR *)(CYDEV_UDB_P1_U0_BASE), BS_UDB_0_0_1_CONFIG_VAL, 128u},
 635:Generated_Source\PSoC4/cyfitter_cfg.c **** 		};
 636:Generated_Source\PSoC4/cyfitter_cfg.c **** 
 637:Generated_Source\PSoC4/cyfitter_cfg.c **** 		uint8 CYDATA i;
 638:Generated_Source\PSoC4/cyfitter_cfg.c **** 
 639:Generated_Source\PSoC4/cyfitter_cfg.c **** 		/* Zero out critical memory blocks before beginning configuration */
 640:Generated_Source\PSoC4/cyfitter_cfg.c **** 		for (i = 0u; i < (sizeof(cfg_memset_list)/sizeof(cfg_memset_list[0])); i++)
 286              		.loc 1 640 0
 287 00b2 0024     		movs	r4, #0
 288 00b4 0FE0     		b	.L12
 289              	.LVL21:
 290              	.L13:
 291              	.LBB4:
 641:Generated_Source\PSoC4/cyfitter_cfg.c **** 		{
 642:Generated_Source\PSoC4/cyfitter_cfg.c **** 			const cfg_memset_t CYCODE * CYDATA ms = &cfg_memset_list[i];
 643:Generated_Source\PSoC4/cyfitter_cfg.c **** 			CYMEMZERO(ms->address, (size_t)(uint32)(ms->size));
 292              		.loc 1 643 0 discriminator 3
 293 00b6 3C48     		ldr	r0, .L16+4
 294 00b8 6200     		lsls	r2, r4, #1
 295 00ba 1319     		adds	r3, r2, r4
 296 00bc 5900     		lsls	r1, r3, #1
 297 00be 0B00     		movs	r3, r1
 298 00c0 4118     		adds	r1, r0, r1
 299 00c2 8988     		ldrh	r1, [r1, #4]
 300 00c4 1A5A     		ldrh	r2, [r3, r0]
 301 00c6 C318     		adds	r3, r0, r3
 302 00c8 5888     		ldrh	r0, [r3, #2]
 303 00ca 0004     		lsls	r0, r0, #16
 304 00cc 1043     		orrs	r0, r2
 305 00ce FFF7FEFF 		bl	CYMEMZERO
 306              	.LVL22:
 307              	.LBE4:
 640:Generated_Source\PSoC4/cyfitter_cfg.c **** 		{
 308              		.loc 1 640 0 discriminator 3
 309 00d2 0134     		adds	r4, r4, #1
 310              	.LVL23:
 311 00d4 E4B2     		uxtb	r4, r4
 312              	.LVL24:
 313              	.L12:
 640:Generated_Source\PSoC4/cyfitter_cfg.c **** 		{
 314              		.loc 1 640 0 is_stmt 0 discriminator 1
 315 00d6 022C     		cmp	r4, #2
ARM GAS  C:\Users\LUKEYO~1\AppData\Local\Temp\ccnYjAGW.s 			page 18


 316 00d8 EDD9     		bls	.L13
 317 00da 0024     		movs	r4, #0
 318              	.LVL25:
 319 00dc 11E0     		b	.L14
 320              	.LVL26:
 321              	.L15:
 322              	.LBB5:
 644:Generated_Source\PSoC4/cyfitter_cfg.c **** 		}
 645:Generated_Source\PSoC4/cyfitter_cfg.c **** 
 646:Generated_Source\PSoC4/cyfitter_cfg.c **** 		/* Copy device configuration data into registers */
 647:Generated_Source\PSoC4/cyfitter_cfg.c **** 		for (i = 0u; i < (sizeof(cfg_memcpy_list)/sizeof(cfg_memcpy_list[0])); i++)
 648:Generated_Source\PSoC4/cyfitter_cfg.c **** 		{
 649:Generated_Source\PSoC4/cyfitter_cfg.c **** 			const cfg_memcpy_t CYCODE * CYDATA mc = &cfg_memcpy_list[i];
 650:Generated_Source\PSoC4/cyfitter_cfg.c **** 			void * CYDATA destPtr = mc->dest;
 323              		.loc 1 650 0 is_stmt 1 discriminator 3
 324 00de 324E     		ldr	r6, .L16+4
 325 00e0 A200     		lsls	r2, r4, #2
 326 00e2 1319     		adds	r3, r2, r4
 327 00e4 5900     		lsls	r1, r3, #1
 328 00e6 7118     		adds	r1, r6, r1
 329 00e8 8D8A     		ldrh	r5, [r1, #20]
 330 00ea C88A     		ldrh	r0, [r1, #22]
 331 00ec 0004     		lsls	r0, r0, #16
 332 00ee 2843     		orrs	r0, r5
 333              	.LVL27:
 651:Generated_Source\PSoC4/cyfitter_cfg.c **** 			const void CYCODE * CYDATA srcPtr = mc->src;
 334              		.loc 1 651 0 discriminator 3
 335 00f0 0A8B     		ldrh	r2, [r1, #24]
 336 00f2 498B     		ldrh	r1, [r1, #26]
 337 00f4 0904     		lsls	r1, r1, #16
 338 00f6 1143     		orrs	r1, r2
 339              	.LVL28:
 652:Generated_Source\PSoC4/cyfitter_cfg.c **** 			uint16 CYDATA numBytes = mc->size;
 653:Generated_Source\PSoC4/cyfitter_cfg.c **** 			CYCONFIGCPYCODE(destPtr, srcPtr, numBytes);
 340              		.loc 1 653 0 discriminator 3
 341 00f8 8022     		movs	r2, #128
 342 00fa FFF7FEFF 		bl	CYCONFIGCPYCODE
 343              	.LVL29:
 344              	.LBE5:
 647:Generated_Source\PSoC4/cyfitter_cfg.c **** 		{
 345              		.loc 1 647 0 discriminator 3
 346 00fe 0134     		adds	r4, r4, #1
 347              	.LVL30:
 348 0100 E4B2     		uxtb	r4, r4
 349              	.LVL31:
 350              	.L14:
 647:Generated_Source\PSoC4/cyfitter_cfg.c **** 		{
 351              		.loc 1 647 0 is_stmt 0 discriminator 1
 352 0102 002C     		cmp	r4, #0
 353 0104 EBD0     		beq	.L15
 654:Generated_Source\PSoC4/cyfitter_cfg.c **** 		}
 655:Generated_Source\PSoC4/cyfitter_cfg.c **** 
 656:Generated_Source\PSoC4/cyfitter_cfg.c **** 		cfg_write_bytes32(cy_cfg_addr_table, cy_cfg_data_table);
 354              		.loc 1 656 0 is_stmt 1
 355 0106 2849     		ldr	r1, .L16+4
 356 0108 2031     		adds	r1, r1, #32
 357 010a 2848     		ldr	r0, .L16+8
ARM GAS  C:\Users\LUKEYO~1\AppData\Local\Temp\ccnYjAGW.s 			page 19


 358 010c 5830     		adds	r0, r0, #88
 359 010e FFF7FEFF 		bl	cfg_write_bytes32
 360              	.LVL32:
 657:Generated_Source\PSoC4/cyfitter_cfg.c **** 
 658:Generated_Source\PSoC4/cyfitter_cfg.c **** 		/* Perform normal device configuration. Order is not critical for these items. */
 659:Generated_Source\PSoC4/cyfitter_cfg.c **** 		CY_SET_REG16((void *)(CYREG_UDB_BCTL0_DRV), 0x0100u);
 361              		.loc 1 659 0
 362 0112 8022     		movs	r2, #128
 363 0114 5200     		lsls	r2, r2, #1
 364 0116 264B     		ldr	r3, .L16+12
 365 0118 1A80     		strh	r2, [r3]
 660:Generated_Source\PSoC4/cyfitter_cfg.c **** 		CY_SET_REG8((void *)(CYREG_UDB_BCTL0_DRV + 0x2u), 0x01u);
 366              		.loc 1 660 0
 367 011a 0123     		movs	r3, #1
 368 011c 254A     		ldr	r2, .L16+16
 369 011e 1370     		strb	r3, [r2]
 661:Generated_Source\PSoC4/cyfitter_cfg.c **** 
 662:Generated_Source\PSoC4/cyfitter_cfg.c **** 		/* HSIOM Starting address: CYDEV_HSIOM_BASE */
 663:Generated_Source\PSoC4/cyfitter_cfg.c **** 		CY_SET_REG32((void *)(CYDEV_HSIOM_BASE), 0x00000333u);
 370              		.loc 1 663 0
 371 0120 2549     		ldr	r1, .L16+20
 372 0122 264A     		ldr	r2, .L16+24
 373 0124 1160     		str	r1, [r2]
 664:Generated_Source\PSoC4/cyfitter_cfg.c **** 		CY_SET_REG32((void *)(CYREG_HSIOM_PORT_SEL4), 0x00000099u);
 374              		.loc 1 664 0
 375 0126 9921     		movs	r1, #153
 376 0128 254A     		ldr	r2, .L16+28
 377 012a 1160     		str	r1, [r2]
 665:Generated_Source\PSoC4/cyfitter_cfg.c **** 
 666:Generated_Source\PSoC4/cyfitter_cfg.c **** 		/* FORCED_HSIOM Starting address: CYDEV_HSIOM_PORT_SEL3 */
 667:Generated_Source\PSoC4/cyfitter_cfg.c **** 		CY_SET_REG32((void *)(CYREG_HSIOM_PORT_SEL3), 0x00000000u);
 378              		.loc 1 667 0
 379 012c 0022     		movs	r2, #0
 380 012e 2549     		ldr	r1, .L16+32
 381 0130 0A60     		str	r2, [r1]
 668:Generated_Source\PSoC4/cyfitter_cfg.c **** 
 669:Generated_Source\PSoC4/cyfitter_cfg.c **** 		/* IOPINS0_3 Starting address: CYDEV_PRT3_PC */
 670:Generated_Source\PSoC4/cyfitter_cfg.c **** 		CY_SET_REG32((void *)(CYREG_PRT3_PC), 0x00000000u);
 382              		.loc 1 670 0
 383 0132 2549     		ldr	r1, .L16+36
 384 0134 0A60     		str	r2, [r1]
 671:Generated_Source\PSoC4/cyfitter_cfg.c **** 
 672:Generated_Source\PSoC4/cyfitter_cfg.c **** 		/* UDB_PA_0 Starting address: CYDEV_UDB_PA0_BASE */
 673:Generated_Source\PSoC4/cyfitter_cfg.c **** 		CY_SET_REG32((void *)(CYDEV_UDB_PA0_BASE), 0x00990004u);
 385              		.loc 1 673 0
 386 0136 2549     		ldr	r1, .L16+40
 387 0138 254A     		ldr	r2, .L16+44
 388 013a 1160     		str	r1, [r2]
 674:Generated_Source\PSoC4/cyfitter_cfg.c **** 		CY_SET_REG32((void *)(CYREG_UDB_PA0_CFG4), 0x00800000u);
 389              		.loc 1 674 0
 390 013c 8021     		movs	r1, #128
 391 013e 0904     		lsls	r1, r1, #16
 392 0140 244A     		ldr	r2, .L16+48
 393 0142 1160     		str	r1, [r2]
 675:Generated_Source\PSoC4/cyfitter_cfg.c **** 		CY_SET_REG32((void *)(CYREG_UDB_PA0_CFG8), 0x003D0000u);
 394              		.loc 1 675 0
 395 0144 F421     		movs	r1, #244
ARM GAS  C:\Users\LUKEYO~1\AppData\Local\Temp\ccnYjAGW.s 			page 20


 396 0146 8903     		lsls	r1, r1, #14
 397 0148 234A     		ldr	r2, .L16+52
 398 014a 1160     		str	r1, [r2]
 676:Generated_Source\PSoC4/cyfitter_cfg.c **** 
 677:Generated_Source\PSoC4/cyfitter_cfg.c **** 		/* UDB_PA_1 Starting address: CYDEV_UDB_PA1_BASE */
 678:Generated_Source\PSoC4/cyfitter_cfg.c **** 		CY_SET_REG32((void *)(CYDEV_UDB_PA1_BASE), 0x00990000u);
 399              		.loc 1 678 0
 400 014c 9921     		movs	r1, #153
 401 014e 0904     		lsls	r1, r1, #16
 402 0150 224A     		ldr	r2, .L16+56
 403 0152 1160     		str	r1, [r2]
 679:Generated_Source\PSoC4/cyfitter_cfg.c **** 
 680:Generated_Source\PSoC4/cyfitter_cfg.c **** 		/* INT_SELECT Starting address: CYDEV_CPUSS_INTR_SELECT */
 681:Generated_Source\PSoC4/cyfitter_cfg.c **** 		CY_SET_REG32((void *)(CYREG_CPUSS_INTR_SELECT), 0x00000001u);
 404              		.loc 1 681 0
 405 0154 224A     		ldr	r2, .L16+60
 406 0156 1360     		str	r3, [r2]
 682:Generated_Source\PSoC4/cyfitter_cfg.c **** 
 683:Generated_Source\PSoC4/cyfitter_cfg.c **** 		/* INT_CONFIG Starting address: CYDEV_UDB_INT_CFG */
 684:Generated_Source\PSoC4/cyfitter_cfg.c **** 		CY_SET_REG32((void *)(CYREG_UDB_INT_CFG), 0x00000002u);
 407              		.loc 1 684 0
 408 0158 0221     		movs	r1, #2
 409 015a 224B     		ldr	r3, .L16+64
 410 015c 1960     		str	r1, [r3]
 685:Generated_Source\PSoC4/cyfitter_cfg.c **** 
 686:Generated_Source\PSoC4/cyfitter_cfg.c **** 		/* Enable UDB array and digital routing */
 687:Generated_Source\PSoC4/cyfitter_cfg.c **** 		CY_SET_XTND_REG8((void *)CYREG_UDB_UDBIF_WAIT_CFG, (uint8)((CY_GET_XTND_REG8((void *)CYREG_UDB_UD
 411              		.loc 1 687 0
 412 015e 2248     		ldr	r0, .L16+68
 413 0160 0378     		ldrb	r3, [r0]
 414 0162 3C22     		movs	r2, #60
 415 0164 9343     		bics	r3, r2
 416 0166 1422     		movs	r2, #20
 417 0168 1343     		orrs	r3, r2
 418 016a DBB2     		uxtb	r3, r3
 419 016c 0370     		strb	r3, [r0]
 688:Generated_Source\PSoC4/cyfitter_cfg.c **** 		CY_SET_XTND_REG8((void *)CYREG_UDB_UDBIF_BANK_CTL, (uint8)(CY_GET_XTND_REG8((void *)CYREG_UDB_UDB
 420              		.loc 1 688 0
 421 016e 1F4A     		ldr	r2, .L16+72
 422 0170 1078     		ldrb	r0, [r2]
 423 0172 1623     		movs	r3, #22
 424 0174 0343     		orrs	r3, r0
 425 0176 DBB2     		uxtb	r3, r3
 426 0178 1370     		strb	r3, [r2]
 427              	.LBE3:
 689:Generated_Source\PSoC4/cyfitter_cfg.c **** 	}
 690:Generated_Source\PSoC4/cyfitter_cfg.c **** 
 691:Generated_Source\PSoC4/cyfitter_cfg.c **** 	/* Perform second pass device configuration. These items must be configured in specific order afte
 692:Generated_Source\PSoC4/cyfitter_cfg.c **** 	/* IOPINS0_0 Starting address: CYDEV_PRT0_BASE */
 693:Generated_Source\PSoC4/cyfitter_cfg.c **** 	CY_SET_REG32((void *)(CYDEV_PRT0_BASE), 0x00000087u);
 428              		.loc 1 693 0
 429 017a 8722     		movs	r2, #135
 430 017c 1C4B     		ldr	r3, .L16+76
 431 017e 1A60     		str	r2, [r3]
 694:Generated_Source\PSoC4/cyfitter_cfg.c **** 	CY_SET_REG32((void *)(CYREG_PRT0_PC), 0x004003B6u);
 432              		.loc 1 694 0
 433 0180 1C4A     		ldr	r2, .L16+80
ARM GAS  C:\Users\LUKEYO~1\AppData\Local\Temp\ccnYjAGW.s 			page 21


 434 0182 1D4B     		ldr	r3, .L16+84
 435 0184 1A60     		str	r2, [r3]
 695:Generated_Source\PSoC4/cyfitter_cfg.c **** 
 696:Generated_Source\PSoC4/cyfitter_cfg.c **** 	/* IOPINS0_1 Starting address: CYDEV_PRT1_BASE */
 697:Generated_Source\PSoC4/cyfitter_cfg.c **** 	CY_SET_REG32((void *)(CYREG_PRT1_PC), 0x00180000u);
 436              		.loc 1 697 0
 437 0186 C022     		movs	r2, #192
 438 0188 5203     		lsls	r2, r2, #13
 439 018a 1C4B     		ldr	r3, .L16+88
 440 018c 1A60     		str	r2, [r3]
 698:Generated_Source\PSoC4/cyfitter_cfg.c **** 
 699:Generated_Source\PSoC4/cyfitter_cfg.c **** 	/* IOPINS0_4 Starting address: CYDEV_PRT4_BASE */
 700:Generated_Source\PSoC4/cyfitter_cfg.c **** 	CY_SET_REG32((void *)(CYDEV_PRT4_BASE), 0x00000002u);
 441              		.loc 1 700 0
 442 018e 1C4B     		ldr	r3, .L16+92
 443 0190 1960     		str	r1, [r3]
 701:Generated_Source\PSoC4/cyfitter_cfg.c **** 	CY_SET_REG32((void *)(CYREG_PRT4_PC), 0x00000031u);
 444              		.loc 1 701 0
 445 0192 3122     		movs	r2, #49
 446 0194 1B4B     		ldr	r3, .L16+96
 447 0196 1A60     		str	r2, [r3]
 702:Generated_Source\PSoC4/cyfitter_cfg.c **** 	CY_SET_REG32((void *)(CYREG_PRT4_PC2), 0x00000002u);
 448              		.loc 1 702 0
 449 0198 1B4B     		ldr	r3, .L16+100
 450 019a 1960     		str	r1, [r3]
 703:Generated_Source\PSoC4/cyfitter_cfg.c **** 
 704:Generated_Source\PSoC4/cyfitter_cfg.c **** 
 705:Generated_Source\PSoC4/cyfitter_cfg.c **** 	/* Setup clocks based on selections from Clock DWR */
 706:Generated_Source\PSoC4/cyfitter_cfg.c **** 	ClockSetup();
 451              		.loc 1 706 0
 452 019c FFF730FF 		bl	ClockSetup
 453              	.LVL33:
 707:Generated_Source\PSoC4/cyfitter_cfg.c **** 
 708:Generated_Source\PSoC4/cyfitter_cfg.c **** 	/* Perform basic analog initialization to defaults */
 709:Generated_Source\PSoC4/cyfitter_cfg.c **** 	AnalogSetDefault();
 710:Generated_Source\PSoC4/cyfitter_cfg.c **** 
 711:Generated_Source\PSoC4/cyfitter_cfg.c **** }
 454              		.loc 1 711 0
 455              		@ sp needed
 456              	.LVL34:
 457 01a0 70BD     		pop	{r4, r5, r6, pc}
 458              	.L17:
 459 01a2 C046     		.align	2
 460              	.L16:
 461 01a4 1C700F40 		.word	1074753564
 462 01a8 00000000 		.word	.LANCHOR0
 463 01ac 00020000 		.word	.LANCHOR1
 464 01b0 00600F40 		.word	1074749440
 465 01b4 02600F40 		.word	1074749442
 466 01b8 33030000 		.word	819
 467 01bc 00000140 		.word	1073807360
 468 01c0 10000140 		.word	1073807376
 469 01c4 0C000140 		.word	1073807372
 470 01c8 08030440 		.word	1074004744
 471 01cc 04009900 		.word	10027012
 472 01d0 00500F40 		.word	1074745344
 473 01d4 04500F40 		.word	1074745348
ARM GAS  C:\Users\LUKEYO~1\AppData\Local\Temp\ccnYjAGW.s 			page 22


 474 01d8 08500F40 		.word	1074745352
 475 01dc 10500F40 		.word	1074745360
 476 01e0 20000040 		.word	1073741856
 477 01e4 00800F40 		.word	1074757632
 478 01e8 01700F40 		.word	1074753537
 479 01ec 00700F40 		.word	1074753536
 480 01f0 00000440 		.word	1074003968
 481 01f4 B6034000 		.word	4195254
 482 01f8 08000440 		.word	1074003976
 483 01fc 08010440 		.word	1074004232
 484 0200 00040440 		.word	1074004992
 485 0204 08040440 		.word	1074005000
 486 0208 18040440 		.word	1074005016
 487              		.cfi_endproc
 488              	.LFE6:
 489              		.size	cyfitter_cfg, .-cyfitter_cfg
 490              		.section	.rodata
 491              		.align	2
 492              		.set	.LANCHOR0,. + 0
 493              		.set	.LANCHOR1,. + 512
 494              		.type	cfg_memset_list.4875, %object
 495              		.size	cfg_memset_list.4875, 18
 496              	cfg_memset_list.4875:
 497 0000 00300F40 		.word	1074737152
 498 0004 0002     		.short	512
 499 0006 80320F40 		.4byte	1074737792
 500 000a 8001     		.short	384
 501 000c 00400F40 		.word	1074741248
 502 0010 0004     		.short	1024
 503 0012 0000     		.space	2
 504              		.type	cfg_memcpy_list.4877, %object
 505              		.size	cfg_memcpy_list.4877, 10
 506              	cfg_memcpy_list.4877:
 507 0014 00320F40 		.word	1074737664
 508 0018 78020000 		.word	BS_UDB_0_0_1_CONFIG_VAL.4876
 509 001c 8000     		.short	128
 510 001e 0000     		.space	2
 511              		.type	cy_cfg_data_table.4865, %object
 512              		.size	cy_cfg_data_table.4865, 568
 513              	cy_cfg_data_table.4865:
 514 0020 81       		.byte	-127
 515 0021 0F       		.byte	15
 516 0022 82       		.byte	-126
 517 0023 72       		.byte	114
 518 0024 83       		.byte	-125
 519 0025 38       		.byte	56
 520 0026 02       		.byte	2
 521 0027 20       		.byte	32
 522 0028 04       		.byte	4
 523 0029 10       		.byte	16
 524 002a 05       		.byte	5
 525 002b 2C       		.byte	44
 526 002c 06       		.byte	6
 527 002d AC       		.byte	-84
 528 002e 07       		.byte	7
 529 002f 43       		.byte	67
 530 0030 0C       		.byte	12
ARM GAS  C:\Users\LUKEYO~1\AppData\Local\Temp\ccnYjAGW.s 			page 23


 531 0031 0C       		.byte	12
 532 0032 0D       		.byte	13
 533 0033 80       		.byte	-128
 534 0034 0E       		.byte	14
 535 0035 71       		.byte	113
 536 0036 0F       		.byte	15
 537 0037 13       		.byte	19
 538 0038 13       		.byte	19
 539 0039 0C       		.byte	12
 540 003a 16       		.byte	22
 541 003b 03       		.byte	3
 542 003c 17       		.byte	23
 543 003d 08       		.byte	8
 544 003e 18       		.byte	24
 545 003f DC       		.byte	-36
 546 0040 19       		.byte	25
 547 0041 71       		.byte	113
 548 0042 1A       		.byte	26
 549 0043 22       		.byte	34
 550 0044 1B       		.byte	27
 551 0045 06       		.byte	6
 552 0046 1C       		.byte	28
 553 0047 09       		.byte	9
 554 0048 1E       		.byte	30
 555 0049 D0       		.byte	-48
 556 004a 21       		.byte	33
 557 004b 71       		.byte	113
 558 004c 23       		.byte	35
 559 004d 0E       		.byte	14
 560 004e 24       		.byte	36
 561 004f 14       		.byte	20
 562 0050 28       		.byte	40
 563 0051 10       		.byte	16
 564 0052 2A       		.byte	42
 565 0053 40       		.byte	64
 566 0054 30       		.byte	48
 567 0055 E0       		.byte	-32
 568 0056 31       		.byte	49
 569 0057 C0       		.byte	-64
 570 0058 32       		.byte	50
 571 0059 1F       		.byte	31
 572 005a 33       		.byte	51
 573 005b 30       		.byte	48
 574 005c 35       		.byte	53
 575 005d 0F       		.byte	15
 576 005e 37       		.byte	55
 577 005f 20       		.byte	32
 578 0060 39       		.byte	57
 579 0061 8A       		.byte	-118
 580 0062 3A       		.byte	58
 581 0063 02       		.byte	2
 582 0064 3B       		.byte	59
 583 0065 20       		.byte	32
 584 0066 3F       		.byte	63
 585 0067 04       		.byte	4
 586 0068 40       		.byte	64
 587 0069 03       		.byte	3
ARM GAS  C:\Users\LUKEYO~1\AppData\Local\Temp\ccnYjAGW.s 			page 24


 588 006a 47       		.byte	71
 589 006b 04       		.byte	4
 590 006c 49       		.byte	73
 591 006d FF       		.byte	-1
 592 006e 4A       		.byte	74
 593 006f 07       		.byte	7
 594 0070 4B       		.byte	75
 595 0071 FF       		.byte	-1
 596 0072 4C       		.byte	76
 597 0073 40       		.byte	64
 598 0074 4D       		.byte	77
 599 0075 20       		.byte	32
 600 0076 4E       		.byte	78
 601 0077 F0       		.byte	-16
 602 0078 4F       		.byte	79
 603 0079 05       		.byte	5
 604 007a 50       		.byte	80
 605 007b 08       		.byte	8
 606 007c 58       		.byte	88
 607 007d 04       		.byte	4
 608 007e 59       		.byte	89
 609 007f 04       		.byte	4
 610 0080 5A       		.byte	90
 611 0081 04       		.byte	4
 612 0082 5F       		.byte	95
 613 0083 01       		.byte	1
 614 0084 60       		.byte	96
 615 0085 40       		.byte	64
 616 0086 61       		.byte	97
 617 0087 A8       		.byte	-88
 618 0088 62       		.byte	98
 619 0089 40       		.byte	64
 620 008a 63       		.byte	99
 621 008b 20       		.byte	32
 622 008c 82       		.byte	-126
 623 008d 15       		.byte	21
 624 008e 84       		.byte	-124
 625 008f E0       		.byte	-32
 626 0090 88       		.byte	-120
 627 0091 E0       		.byte	-32
 628 0092 89       		.byte	-119
 629 0093 13       		.byte	19
 630 0094 8C       		.byte	-116
 631 0095 80       		.byte	-128
 632 0096 8D       		.byte	-115
 633 0097 10       		.byte	16
 634 0098 8E       		.byte	-114
 635 0099 40       		.byte	64
 636 009a 90       		.byte	-112
 637 009b 20       		.byte	32
 638 009c 92       		.byte	-110
 639 009d 40       		.byte	64
 640 009e 94       		.byte	-108
 641 009f 40       		.byte	64
 642 00a0 95       		.byte	-107
 643 00a1 13       		.byte	19
 644 00a2 96       		.byte	-106
ARM GAS  C:\Users\LUKEYO~1\AppData\Local\Temp\ccnYjAGW.s 			page 25


 645 00a3 A0       		.byte	-96
 646 00a4 98       		.byte	-104
 647 00a5 03       		.byte	3
 648 00a6 99       		.byte	-103
 649 00a7 02       		.byte	2
 650 00a8 9A       		.byte	-102
 651 00a9 14       		.byte	20
 652 00aa 9B       		.byte	-101
 653 00ab 05       		.byte	5
 654 00ac 9C       		.byte	-100
 655 00ad 13       		.byte	19
 656 00ae 9E       		.byte	-98
 657 00af 04       		.byte	4
 658 00b0 A2       		.byte	-94
 659 00b1 08       		.byte	8
 660 00b2 A4       		.byte	-92
 661 00b3 13       		.byte	19
 662 00b4 A6       		.byte	-90
 663 00b5 0C       		.byte	12
 664 00b6 A8       		.byte	-88
 665 00b7 0A       		.byte	10
 666 00b8 AA       		.byte	-86
 667 00b9 14       		.byte	20
 668 00ba AB       		.byte	-85
 669 00bb 08       		.byte	8
 670 00bc AD       		.byte	-83
 671 00bd 01       		.byte	1
 672 00be AF       		.byte	-81
 673 00bf 06       		.byte	6
 674 00c0 B0       		.byte	-80
 675 00c1 10       		.byte	16
 676 00c2 B1       		.byte	-79
 677 00c3 10       		.byte	16
 678 00c4 B2       		.byte	-78
 679 00c5 E0       		.byte	-32
 680 00c6 B3       		.byte	-77
 681 00c7 03       		.byte	3
 682 00c8 B4       		.byte	-76
 683 00c9 0F       		.byte	15
 684 00ca B7       		.byte	-73
 685 00cb 0C       		.byte	12
 686 00cc BA       		.byte	-70
 687 00cd 20       		.byte	32
 688 00ce BE       		.byte	-66
 689 00cf 01       		.byte	1
 690 00d0 BF       		.byte	-65
 691 00d1 40       		.byte	64
 692 00d2 C0       		.byte	-64
 693 00d3 24       		.byte	36
 694 00d4 C1       		.byte	-63
 695 00d5 01       		.byte	1
 696 00d6 C5       		.byte	-59
 697 00d7 0C       		.byte	12
 698 00d8 C6       		.byte	-58
 699 00d9 BE       		.byte	-66
 700 00da C8       		.byte	-56
 701 00db 0D       		.byte	13
ARM GAS  C:\Users\LUKEYO~1\AppData\Local\Temp\ccnYjAGW.s 			page 26


 702 00dc C9       		.byte	-55
 703 00dd FF       		.byte	-1
 704 00de CA       		.byte	-54
 705 00df FF       		.byte	-1
 706 00e0 CB       		.byte	-53
 707 00e1 FF       		.byte	-1
 708 00e2 CE       		.byte	-50
 709 00e3 F0       		.byte	-16
 710 00e4 CF       		.byte	-49
 711 00e5 44       		.byte	68
 712 00e6 D0       		.byte	-48
 713 00e7 0C       		.byte	12
 714 00e8 D4       		.byte	-44
 715 00e9 01       		.byte	1
 716 00ea D8       		.byte	-40
 717 00eb 04       		.byte	4
 718 00ec D9       		.byte	-39
 719 00ed 04       		.byte	4
 720 00ee DA       		.byte	-38
 721 00ef 04       		.byte	4
 722 00f0 DB       		.byte	-37
 723 00f1 04       		.byte	4
 724 00f2 DF       		.byte	-33
 725 00f3 01       		.byte	1
 726 00f4 E6       		.byte	-26
 727 00f5 C0       		.byte	-64
 728 00f6 EA       		.byte	-22
 729 00f7 40       		.byte	64
 730 00f8 EB       		.byte	-21
 731 00f9 02       		.byte	2
 732 00fa 00       		.byte	0
 733 00fb 40       		.byte	64
 734 00fc 02       		.byte	2
 735 00fd 40       		.byte	64
 736 00fe 03       		.byte	3
 737 00ff 10       		.byte	16
 738 0100 04       		.byte	4
 739 0101 28       		.byte	40
 740 0102 06       		.byte	6
 741 0103 60       		.byte	96
 742 0104 07       		.byte	7
 743 0105 05       		.byte	5
 744 0106 09       		.byte	9
 745 0107 20       		.byte	32
 746 0108 0A       		.byte	10
 747 0109 12       		.byte	18
 748 010a 0D       		.byte	13
 749 010b 02       		.byte	2
 750 010c 0E       		.byte	14
 751 010d 20       		.byte	32
 752 010e 0F       		.byte	15
 753 010f 06       		.byte	6
 754 0110 10       		.byte	16
 755 0111 28       		.byte	40
 756 0112 14       		.byte	20
 757 0113 10       		.byte	16
 758 0114 15       		.byte	21
ARM GAS  C:\Users\LUKEYO~1\AppData\Local\Temp\ccnYjAGW.s 			page 27


 759 0115 22       		.byte	34
 760 0116 18       		.byte	24
 761 0117 40       		.byte	64
 762 0118 19       		.byte	25
 763 0119 01       		.byte	1
 764 011a 1A       		.byte	26
 765 011b 30       		.byte	48
 766 011c 1B       		.byte	27
 767 011d 01       		.byte	1
 768 011e 1D       		.byte	29
 769 011f 10       		.byte	16
 770 0120 1E       		.byte	30
 771 0121 60       		.byte	96
 772 0122 1F       		.byte	31
 773 0123 0C       		.byte	12
 774 0124 20       		.byte	32
 775 0125 06       		.byte	6
 776 0126 21       		.byte	33
 777 0127 35       		.byte	53
 778 0128 22       		.byte	34
 779 0129 01       		.byte	1
 780 012a 26       		.byte	38
 781 012b 04       		.byte	4
 782 012c 27       		.byte	39
 783 012d 62       		.byte	98
 784 012e 29       		.byte	41
 785 012f 01       		.byte	1
 786 0130 2A       		.byte	42
 787 0131 02       		.byte	2
 788 0132 2E       		.byte	46
 789 0133 80       		.byte	-128
 790 0134 2F       		.byte	47
 791 0135 04       		.byte	4
 792 0136 30       		.byte	48
 793 0137 18       		.byte	24
 794 0138 31       		.byte	49
 795 0139 10       		.byte	16
 796 013a 32       		.byte	50
 797 013b 01       		.byte	1
 798 013c 33       		.byte	51
 799 013d 10       		.byte	16
 800 013e 37       		.byte	55
 801 013f 24       		.byte	36
 802 0140 38       		.byte	56
 803 0141 84       		.byte	-124
 804 0142 3D       		.byte	61
 805 0143 80       		.byte	-128
 806 0144 3E       		.byte	62
 807 0145 20       		.byte	32
 808 0146 41       		.byte	65
 809 0147 04       		.byte	4
 810 0148 46       		.byte	70
 811 0149 42       		.byte	66
 812 014a 47       		.byte	71
 813 014b 10       		.byte	16
 814 014c 4F       		.byte	79
 815 014d 04       		.byte	4
ARM GAS  C:\Users\LUKEYO~1\AppData\Local\Temp\ccnYjAGW.s 			page 28


 816 014e 50       		.byte	80
 817 014f 48       		.byte	72
 818 0150 52       		.byte	82
 819 0151 40       		.byte	64
 820 0152 54       		.byte	84
 821 0153 60       		.byte	96
 822 0154 57       		.byte	87
 823 0155 80       		.byte	-128
 824 0156 5D       		.byte	93
 825 0157 21       		.byte	33
 826 0158 5E       		.byte	94
 827 0159 40       		.byte	64
 828 015a 5F       		.byte	95
 829 015b 08       		.byte	8
 830 015c 65       		.byte	101
 831 015d 20       		.byte	32
 832 015e 67       		.byte	103
 833 015f 04       		.byte	4
 834 0160 79       		.byte	121
 835 0161 01       		.byte	1
 836 0162 7B       		.byte	123
 837 0163 80       		.byte	-128
 838 0164 C0       		.byte	-64
 839 0165 FD       		.byte	-3
 840 0166 C2       		.byte	-62
 841 0167 F7       		.byte	-9
 842 0168 C4       		.byte	-60
 843 0169 76       		.byte	118
 844 016a CA       		.byte	-54
 845 016b 31       		.byte	49
 846 016c CC       		.byte	-52
 847 016d 67       		.byte	103
 848 016e CE       		.byte	-50
 849 016f 3A       		.byte	58
 850 0170 D0       		.byte	-48
 851 0171 B2       		.byte	-78
 852 0172 D6       		.byte	-42
 853 0173 F0       		.byte	-16
 854 0174 86       		.byte	-122
 855 0175 02       		.byte	2
 856 0176 8E       		.byte	-114
 857 0177 01       		.byte	1
 858 0178 92       		.byte	-110
 859 0179 02       		.byte	2
 860 017a 99       		.byte	-103
 861 017b 01       		.byte	1
 862 017c 9E       		.byte	-98
 863 017d 04       		.byte	4
 864 017e A6       		.byte	-90
 865 017f 01       		.byte	1
 866 0180 B0       		.byte	-80
 867 0181 01       		.byte	1
 868 0182 B1       		.byte	-79
 869 0183 01       		.byte	1
 870 0184 B4       		.byte	-76
 871 0185 02       		.byte	2
 872 0186 B6       		.byte	-74
ARM GAS  C:\Users\LUKEYO~1\AppData\Local\Temp\ccnYjAGW.s 			page 29


 873 0187 04       		.byte	4
 874 0188 BA       		.byte	-70
 875 0189 08       		.byte	8
 876 018a BE       		.byte	-66
 877 018b 11       		.byte	17
 878 018c BF       		.byte	-65
 879 018d 01       		.byte	1
 880 018e D4       		.byte	-44
 881 018f 18       		.byte	24
 882 0190 D6       		.byte	-42
 883 0191 04       		.byte	4
 884 0192 D8       		.byte	-40
 885 0193 04       		.byte	4
 886 0194 D9       		.byte	-39
 887 0195 04       		.byte	4
 888 0196 DB       		.byte	-37
 889 0197 04       		.byte	4
 890 0198 DF       		.byte	-33
 891 0199 01       		.byte	1
 892 019a 00       		.byte	0
 893 019b 40       		.byte	64
 894 019c 01       		.byte	1
 895 019d 40       		.byte	64
 896 019e 03       		.byte	3
 897 019f 20       		.byte	32
 898 01a0 05       		.byte	5
 899 01a1 10       		.byte	16
 900 01a2 06       		.byte	6
 901 01a3 02       		.byte	2
 902 01a4 07       		.byte	7
 903 01a5 50       		.byte	80
 904 01a6 09       		.byte	9
 905 01a7 01       		.byte	1
 906 01a8 0B       		.byte	11
 907 01a9 01       		.byte	1
 908 01aa 0E       		.byte	14
 909 01ab 18       		.byte	24
 910 01ac 0F       		.byte	15
 911 01ad 41       		.byte	65
 912 01ae 10       		.byte	16
 913 01af 20       		.byte	32
 914 01b0 16       		.byte	22
 915 01b1 24       		.byte	36
 916 01b2 17       		.byte	23
 917 01b3 01       		.byte	1
 918 01b4 18       		.byte	24
 919 01b5 04       		.byte	4
 920 01b6 19       		.byte	25
 921 01b7 80       		.byte	-128
 922 01b8 1A       		.byte	26
 923 01b9 10       		.byte	16
 924 01ba 1B       		.byte	27
 925 01bb 09       		.byte	9
 926 01bc 1C       		.byte	28
 927 01bd 40       		.byte	64
 928 01be 1D       		.byte	29
 929 01bf 30       		.byte	48
ARM GAS  C:\Users\LUKEYO~1\AppData\Local\Temp\ccnYjAGW.s 			page 30


 930 01c0 1E       		.byte	30
 931 01c1 21       		.byte	33
 932 01c2 1F       		.byte	31
 933 01c3 10       		.byte	16
 934 01c4 21       		.byte	33
 935 01c5 01       		.byte	1
 936 01c6 24       		.byte	36
 937 01c7 10       		.byte	16
 938 01c8 25       		.byte	37
 939 01c9 01       		.byte	1
 940 01ca 26       		.byte	38
 941 01cb 80       		.byte	-128
 942 01cc 27       		.byte	39
 943 01cd 09       		.byte	9
 944 01ce 2D       		.byte	45
 945 01cf A0       		.byte	-96
 946 01d0 2E       		.byte	46
 947 01d1 02       		.byte	2
 948 01d2 2F       		.byte	47
 949 01d3 18       		.byte	24
 950 01d4 32       		.byte	50
 951 01d5 10       		.byte	16
 952 01d6 34       		.byte	52
 953 01d7 01       		.byte	1
 954 01d8 36       		.byte	54
 955 01d9 90       		.byte	-112
 956 01da 37       		.byte	55
 957 01db 10       		.byte	16
 958 01dc 3C       		.byte	60
 959 01dd 80       		.byte	-128
 960 01de 3E       		.byte	62
 961 01df 28       		.byte	40
 962 01e0 3F       		.byte	63
 963 01e1 01       		.byte	1
 964 01e2 44       		.byte	68
 965 01e3 01       		.byte	1
 966 01e4 45       		.byte	69
 967 01e5 20       		.byte	32
 968 01e6 47       		.byte	71
 969 01e7 42       		.byte	66
 970 01e8 4C       		.byte	76
 971 01e9 20       		.byte	32
 972 01ea 4D       		.byte	77
 973 01eb 60       		.byte	96
 974 01ec 57       		.byte	87
 975 01ed 20       		.byte	32
 976 01ee 5A       		.byte	90
 977 01ef 01       		.byte	1
 978 01f0 5C       		.byte	92
 979 01f1 10       		.byte	16
 980 01f2 60       		.byte	96
 981 01f3 04       		.byte	4
 982 01f4 61       		.byte	97
 983 01f5 02       		.byte	2
 984 01f6 63       		.byte	99
 985 01f7 02       		.byte	2
 986 01f8 6C       		.byte	108
ARM GAS  C:\Users\LUKEYO~1\AppData\Local\Temp\ccnYjAGW.s 			page 31


 987 01f9 14       		.byte	20
 988 01fa 6D       		.byte	109
 989 01fb 80       		.byte	-128
 990 01fc 76       		.byte	118
 991 01fd 2E       		.byte	46
 992 01fe 81       		.byte	-127
 993 01ff 02       		.byte	2
 994 0200 85       		.byte	-123
 995 0201 01       		.byte	1
 996 0202 92       		.byte	-110
 997 0203 20       		.byte	32
 998 0204 93       		.byte	-109
 999 0205 41       		.byte	65
 1000 0206 94       		.byte	-108
 1001 0207 28       		.byte	40
 1002 0208 9B       		.byte	-101
 1003 0209 42       		.byte	66
 1004 020a 9F       		.byte	-97
 1005 020b 08       		.byte	8
 1006 020c A0       		.byte	-96
 1007 020d 40       		.byte	64
 1008 020e A2       		.byte	-94
 1009 020f 04       		.byte	4
 1010 0210 A5       		.byte	-91
 1011 0211 40       		.byte	64
 1012 0212 A9       		.byte	-87
 1013 0213 02       		.byte	2
 1014 0214 AA       		.byte	-86
 1015 0215 80       		.byte	-128
 1016 0216 AB       		.byte	-85
 1017 0217 01       		.byte	1
 1018 0218 AC       		.byte	-84
 1019 0219 01       		.byte	1
 1020 021a AF       		.byte	-81
 1021 021b 21       		.byte	33
 1022 021c B3       		.byte	-77
 1023 021d 48       		.byte	72
 1024 021e C0       		.byte	-64
 1025 021f F5       		.byte	-11
 1026 0220 C2       		.byte	-62
 1027 0221 F9       		.byte	-7
 1028 0222 C4       		.byte	-60
 1029 0223 74       		.byte	116
 1030 0224 CA       		.byte	-54
 1031 0225 F0       		.byte	-16
 1032 0226 CC       		.byte	-52
 1033 0227 B4       		.byte	-76
 1034 0228 CE       		.byte	-50
 1035 0229 F0       		.byte	-16
 1036 022a D0       		.byte	-48
 1037 022b B0       		.byte	-80
 1038 022c D2       		.byte	-46
 1039 022d 30       		.byte	48
 1040 022e D6       		.byte	-42
 1041 022f 21       		.byte	33
 1042 0230 D8       		.byte	-40
 1043 0231 0D       		.byte	13
ARM GAS  C:\Users\LUKEYO~1\AppData\Local\Temp\ccnYjAGW.s 			page 32


 1044 0232 07       		.byte	7
 1045 0233 04       		.byte	4
 1046 0234 57       		.byte	87
 1047 0235 09       		.byte	9
 1048 0236 6C       		.byte	108
 1049 0237 20       		.byte	32
 1050 0238 C0       		.byte	-64
 1051 0239 80       		.byte	-128
 1052 023a D4       		.byte	-44
 1053 023b 40       		.byte	64
 1054 023c D6       		.byte	-42
 1055 023d 20       		.byte	32
 1056 023e DA       		.byte	-38
 1057 023f 80       		.byte	-128
 1058 0240 80       		.byte	-128
 1059 0241 20       		.byte	32
 1060 0242 87       		.byte	-121
 1061 0243 08       		.byte	8
 1062 0244 A4       		.byte	-92
 1063 0245 20       		.byte	32
 1064 0246 A7       		.byte	-89
 1065 0247 08       		.byte	8
 1066 0248 AB       		.byte	-85
 1067 0249 04       		.byte	4
 1068 024a AF       		.byte	-81
 1069 024b 01       		.byte	1
 1070 024c E2       		.byte	-30
 1071 024d 80       		.byte	-128
 1072 024e E6       		.byte	-26
 1073 024f 40       		.byte	64
 1074 0250 E8       		.byte	-24
 1075 0251 80       		.byte	-128
 1076 0252 EE       		.byte	-18
 1077 0253 10       		.byte	16
 1078 0254 10       		.byte	16
 1079 0255 01       		.byte	1
 1080 0256 11       		.byte	17
 1081 0257 01       		.byte	1
 1082              		.type	cy_cfg_addr_table.4864, %object
 1083              		.size	cy_cfg_addr_table.4864, 32
 1084              	cy_cfg_addr_table.4864:
 1085 0258 03000F40 		.word	1074724867
 1086 025c 6A300F40 		.word	1074737258
 1087 0260 3D310F40 		.word	1074737469
 1088 0264 13320F40 		.word	1074737683
 1089 0268 4C330F40 		.word	1074737996
 1090 026c 07400F40 		.word	1074741255
 1091 0270 0A410F40 		.word	1074741514
 1092 0274 02600F40 		.word	1074749442
 1093              		.type	BS_UDB_0_0_1_CONFIG_VAL.4876, %object
 1094              		.size	BS_UDB_0_0_1_CONFIG_VAL.4876, 128
 1095              	BS_UDB_0_0_1_CONFIG_VAL.4876:
 1096 0278 00       		.byte	0
 1097 0279 01       		.byte	1
 1098 027a F3       		.byte	-13
 1099 027b 00       		.byte	0
 1100 027c 0F       		.byte	15
ARM GAS  C:\Users\LUKEYO~1\AppData\Local\Temp\ccnYjAGW.s 			page 33


 1101 027d 08       		.byte	8
 1102 027e F0       		.byte	-16
 1103 027f 00       		.byte	0
 1104 0280 F3       		.byte	-13
 1105 0281 18       		.byte	24
 1106 0282 0C       		.byte	12
 1107 0283 00       		.byte	0
 1108 0284 08       		.byte	8
 1109 0285 80       		.byte	-128
 1110 0286 00       		.byte	0
 1111 0287 00       		.byte	0
 1112 0288 C3       		.byte	-61
 1113 0289 00       		.byte	0
 1114 028a 00       		.byte	0
 1115 028b 06       		.byte	6
 1116 028c FF       		.byte	-1
 1117 028d 00       		.byte	0
 1118 028e 00       		.byte	0
 1119 028f 00       		.byte	0
 1120 0290 82       		.byte	-126
 1121 0291 39       		.byte	57
 1122 0292 00       		.byte	0
 1123 0293 42       		.byte	66
 1124 0294 41       		.byte	65
 1125 0295 39       		.byte	57
 1126 0296 00       		.byte	0
 1127 0297 44       		.byte	68
 1128 0298 1C       		.byte	28
 1129 0299 10       		.byte	16
 1130 029a E3       		.byte	-29
 1131 029b 00       		.byte	0
 1132 029c 0C       		.byte	12
 1133 029d 67       		.byte	103
 1134 029e 00       		.byte	0
 1135 029f 18       		.byte	24
 1136 02a0 04       		.byte	4
 1137 02a1 7F       		.byte	127
 1138 02a2 00       		.byte	0
 1139 02a3 00       		.byte	0
 1140 02a4 00       		.byte	0
 1141 02a5 00       		.byte	0
 1142 02a6 00       		.byte	0
 1143 02a7 01       		.byte	1
 1144 02a8 1C       		.byte	28
 1145 02a9 40       		.byte	64
 1146 02aa 2C       		.byte	44
 1147 02ab 20       		.byte	32
 1148 02ac 0F       		.byte	15
 1149 02ad 80       		.byte	-128
 1150 02ae C0       		.byte	-64
 1151 02af 1F       		.byte	31
 1152 02b0 00       		.byte	0
 1153 02b1 02       		.byte	2
 1154 02b2 28       		.byte	40
 1155 02b3 80       		.byte	-128
 1156 02b4 00       		.byte	0
 1157 02b5 00       		.byte	0
ARM GAS  C:\Users\LUKEYO~1\AppData\Local\Temp\ccnYjAGW.s 			page 34


 1158 02b6 00       		.byte	0
 1159 02b7 14       		.byte	20
 1160 02b8 21       		.byte	33
 1161 02b9 06       		.byte	6
 1162 02ba 05       		.byte	5
 1163 02bb 00       		.byte	0
 1164 02bc 04       		.byte	4
 1165 02bd 0C       		.byte	12
 1166 02be E0       		.byte	-32
 1167 02bf 00       		.byte	0
 1168 02c0 09       		.byte	9
 1169 02c1 FF       		.byte	-1
 1170 02c2 FF       		.byte	-1
 1171 02c3 FF       		.byte	-1
 1172 02c4 62       		.byte	98
 1173 02c5 A0       		.byte	-96
 1174 02c6 F0       		.byte	-16
 1175 02c7 41       		.byte	65
 1176 02c8 0C       		.byte	12
 1177 02c9 00       		.byte	0
 1178 02ca 00       		.byte	0
 1179 02cb 00       		.byte	0
 1180 02cc 00       		.byte	0
 1181 02cd 00       		.byte	0
 1182 02ce 02       		.byte	2
 1183 02cf 11       		.byte	17
 1184 02d0 04       		.byte	4
 1185 02d1 04       		.byte	4
 1186 02d2 04       		.byte	4
 1187 02d3 04       		.byte	4
 1188 02d4 00       		.byte	0
 1189 02d5 00       		.byte	0
 1190 02d6 00       		.byte	0
 1191 02d7 01       		.byte	1
 1192 02d8 00       		.byte	0
 1193 02d9 00       		.byte	0
 1194 02da 00       		.byte	0
 1195 02db 00       		.byte	0
 1196 02dc 00       		.byte	0
 1197 02dd 00       		.byte	0
 1198 02de 40       		.byte	64
 1199 02df 02       		.byte	2
 1200 02e0 00       		.byte	0
 1201 02e1 10       		.byte	16
 1202 02e2 30       		.byte	48
 1203 02e3 10       		.byte	16
 1204 02e4 00       		.byte	0
 1205 02e5 10       		.byte	16
 1206 02e6 10       		.byte	16
 1207 02e7 12       		.byte	18
 1208 02e8 00       		.byte	0
 1209 02e9 00       		.byte	0
 1210 02ea 00       		.byte	0
 1211 02eb 00       		.byte	0
 1212 02ec 00       		.byte	0
 1213 02ed 00       		.byte	0
 1214 02ee 00       		.byte	0
ARM GAS  C:\Users\LUKEYO~1\AppData\Local\Temp\ccnYjAGW.s 			page 35


 1215 02ef 00       		.byte	0
 1216 02f0 00       		.byte	0
 1217 02f1 00       		.byte	0
 1218 02f2 00       		.byte	0
 1219 02f3 00       		.byte	0
 1220 02f4 00       		.byte	0
 1221 02f5 00       		.byte	0
 1222 02f6 00       		.byte	0
 1223 02f7 00       		.byte	0
 1224              		.text
 1225              	.Letext0:
 1226              		.file 2 "c:\\program files (x86)\\cypress\\psoc creator\\4.2\\psoc creator\\import\\gnu\\arm\\5.4.
 1227              		.file 3 "Generated_Source\\PSoC4\\cytypes.h"
 1228              		.file 4 "Generated_Source\\PSoC4\\CyLib.h"