ARM GAS  C:\Users\LUKEYO~1\AppData\Local\Temp\ccE59i0j.s 			page 1


   1              		.syntax unified
   2              		.cpu cortex-m0
   3              		.fpu softvfp
   4              		.eabi_attribute 20, 1
   5              		.eabi_attribute 21, 1
   6              		.eabi_attribute 23, 3
   7              		.eabi_attribute 24, 1
   8              		.eabi_attribute 25, 1
   9              		.eabi_attribute 26, 1
  10              		.eabi_attribute 30, 1
  11              		.eabi_attribute 34, 0
  12              		.eabi_attribute 18, 4
  13              		.thumb
  14              		.syntax unified
  15              		.file	"main.c"
  16              		.text
  17              	.Ltext0:
  18              		.cfi_sections	.debug_frame
  19              		.section	.text.main,"ax",%progbits
  20              		.align	2
  21              		.global	main
  22              		.code	16
  23              		.thumb_func
  24              		.type	main, %function
  25              	main:
  26              	.LFB33:
  27              		.file 1 "main.c"
   1:main.c        **** /**
   2:main.c        ****  * @project Basic_1_Modbus_RTU_PSOC4
   3:main.c        ****  * @file    main.c
   4:main.c        ****  * @brief   Example for modbus_rtu_psoc4 libray
   5:main.c        ****  * @author  Luke Young (L S Young Electrical)
   6:main.c        ****  *
   7:main.c        ****  * Slightly amended version of 
   8:main.c        ****  * uC_Modbus by Kim Taylor <https://github.com/kmtaylor>
   9:main.c        ****  * 
  10:main.c        ****  * @copyright
  11:main.c        ****  * This library is free software; you can redistribute it and/or
  12:main.c        ****  * modify it under the terms of the GNU Lesser General Public
  13:main.c        ****  * License as published by the Free Software Foundation; either
  14:main.c        ****  * version 2.1 of the License, or (at your option) any later version.
  15:main.c        ****  * 
  16:main.c        ****  * This library is distributed in the hope that it will be useful,
  17:main.c        ****  * but WITHOUT ANY WARRANTY; without even the implied warranty of
  18:main.c        ****  * MERCHANTABILITY or FITNESS FOR A PARTICULAR PURPOSE.  See the GNU
  19:main.c        ****  * Lesser General Public License for more details.
  20:main.c        ****  * 
  21:main.c        ****  * @details
  22:main.c        ****  * This example shows how to use a psoc CY8CKIT-049-42XX as a modbus RTU 
  23:main.c        ****  * slave device.
  24:main.c        ****  * 
  25:main.c        ****  * When connected to a modbus master on pin0.1 and pin0.2
  26:main.c        ****  * the master will be able use the; Write single register, Write multiple
  27:main.c        ****  * registers, Read holding registers and Report slave ID function codes to read
  28:main.c        ****  * and write data to the psoc4.
  29:main.c        ****  * 
  30:main.c        ****  * The CY8CKIT-049-42XX's on board USB serial device will write debuging 
ARM GAS  C:\Users\LUKEYO~1\AppData\Local\Temp\ccE59i0j.s 			page 2


  31:main.c        ****  * messages to the computer whenever a modbus read or write message is 
  32:main.c        ****  * processed (e.g "Register 0 Read from").
  33:main.c        ****  * 
  34:main.c        ****  * The on LED on pin1.6 will illuminate when modbus data is being read/received.
  35:main.c        ****  */
  36:main.c        **** 
  37:main.c        **** #include <project.h>
  38:main.c        **** #include <stdlib.h>
  39:main.c        **** #include <stdio.h>
  40:main.c        **** 
  41:main.c        **** #include "../../src/modbus.h"
  42:main.c        **** 
  43:main.c        **** /**
  44:main.c        ****  * Modbus Register Access Interface
  45:main.c        ****  * 
  46:main.c        ****  * The following function declarations are used in modbus.c/h to read/write
  47:main.c        ****  * values form this modbus slave device to the connected modbus master.
  48:main.c        ****  * 
  49:main.c        ****  * These declations are defined at the bottom of main.c . Descriptions of the 
  50:main.c        ****  * three functions can be found above their defintions.
  51:main.c        ****  * 
  52:main.c        ****  * The functions can be placed in there own .c file however, defineing them
  53:main.c        ****  * in main.c allows easy access to global variables in the application 
  54:main.c        ****  * code without having to declare a number of extern varribles.
  55:main.c        ****  */
  56:main.c        **** 
  57:main.c        **** int8_t modbus_respond(uint8_t function, uint8_t *msg);
  58:main.c        **** int8_t modbus_write_regs(uint8_t *msg, uint8_t function);
  59:main.c        **** int8_t modbus_read_regs(uint8_t *msg);
  60:main.c        **** 
  61:main.c        **** // Global Variable
  62:main.c        **** uint16_t data[20];
  63:main.c        **** 
  64:main.c        **** int main()
  65:main.c        **** {
  28              		.loc 1 65 0
  29              		.cfi_startproc
  30              		@ args = 0, pretend = 0, frame = 0
  31              		@ frame_needed = 0, uses_anonymous_args = 0
  32 0000 10B5     		push	{r4, lr}
  33              		.cfi_def_cfa_offset 8
  34              		.cfi_offset 4, -8
  35              		.cfi_offset 14, -4
  66:main.c        ****     CyGlobalIntEnable;
  36              		.loc 1 66 0
  37              		.syntax divided
  38              	@ 66 "main.c" 1
  39 0002 62B6     		CPSIE   i
  40              	@ 0 "" 2
  67:main.c        **** 
  68:main.c        ****     // Initialise Modbus Communications and Slave Address
  69:main.c        ****     modbus_init(1);
  41              		.loc 1 69 0
  42              		.thumb
  43              		.syntax unified
  44 0004 0120     		movs	r0, #1
  45 0006 FFF7FEFF 		bl	modbus_init
ARM GAS  C:\Users\LUKEYO~1\AppData\Local\Temp\ccE59i0j.s 			page 3


  46              	.LVL0:
  70:main.c        ****     // Give Modbus Libray Access to Onboard LED
  71:main.c        ****     modbus_rx_led(LED1_Write, MODBUS_ACTIVE_HIGH);
  47              		.loc 1 71 0
  48 000a 0F4C     		ldr	r4, .L3
  49 000c 0121     		movs	r1, #1
  50 000e 2000     		movs	r0, r4
  51 0010 FFF7FEFF 		bl	modbus_rx_led
  52              	.LVL1:
  72:main.c        ****     modbus_tx_led(LED1_Write, MODBUS_ACTIVE_HIGH);
  53              		.loc 1 72 0
  54 0014 0121     		movs	r1, #1
  55 0016 2000     		movs	r0, r4
  56 0018 FFF7FEFF 		bl	modbus_tx_led
  57              	.LVL2:
  73:main.c        **** 
  74:main.c        ****     // Set Modbus Timeout
  75:main.c        ****     // (It Is Ok To Not Set The Timeout Value,
  76:main.c        ****     // The Defult Timeout Peroid Will Be The Period Set In The TopDesign)
  77:main.c        **** #define MODBUS_TIMER_CLK_SPEED_KHZ 1
  78:main.c        ****     uint8_t modbus_timeout_ms = 200;
  79:main.c        ****     MODBUS_TIMER_WritePeriod(MODBUS_TIMER_CLK_SPEED_KHZ * modbus_timeout_ms);
  58              		.loc 1 79 0
  59 001c C820     		movs	r0, #200
  60 001e FFF7FEFF 		bl	MODBUS_TIMER_WritePeriod
  61              	.LVL3:
  80:main.c        **** 
  81:main.c        ****     // Set USBUart Debugging Component
  82:main.c        ****     USB_UART_Start();
  62              		.loc 1 82 0
  63 0022 FFF7FEFF 		bl	USB_UART_Start
  64              	.LVL4:
  83:main.c        ****     USB_UART_UartPutString("Start_Up_USB_UART \r\n");
  65              		.loc 1 83 0
  66 0026 0948     		ldr	r0, .L3+4
  67 0028 FFF7FEFF 		bl	USB_UART_UartPutString
  68              	.LVL5:
  84:main.c        **** 
  85:main.c        ****     // Blink LED for 1 Second
  86:main.c        ****     LED1_Write(1);
  69              		.loc 1 86 0
  70 002c 0120     		movs	r0, #1
  71 002e FFF7FEFF 		bl	LED1_Write
  72              	.LVL6:
  87:main.c        ****     CyDelay(1000);
  73              		.loc 1 87 0
  74 0032 FA20     		movs	r0, #250
  75 0034 8000     		lsls	r0, r0, #2
  76 0036 FFF7FEFF 		bl	CyDelay
  77              	.LVL7:
  88:main.c        ****     LED1_Write(0);
  78              		.loc 1 88 0
  79 003a 0020     		movs	r0, #0
  80 003c FFF7FEFF 		bl	LED1_Write
  81              	.LVL8:
  82              	.L2:
  89:main.c        **** 
ARM GAS  C:\Users\LUKEYO~1\AppData\Local\Temp\ccE59i0j.s 			page 4


  90:main.c        ****     while (1)
  91:main.c        ****     {
  92:main.c        ****         // Run Modbus Libray
  93:main.c        ****         modbus_poll();
  83              		.loc 1 93 0 discriminator 1
  84 0040 FFF7FEFF 		bl	modbus_poll
  85              	.LVL9:
  86 0044 FCE7     		b	.L2
  87              	.L4:
  88 0046 C046     		.align	2
  89              	.L3:
  90 0048 00000000 		.word	LED1_Write
  91 004c 00000000 		.word	.LC1
  92              		.cfi_endproc
  93              	.LFE33:
  94              		.size	main, .-main
  95              		.section	.text.modbus_write_regs,"ax",%progbits
  96              		.align	2
  97              		.global	modbus_write_regs
  98              		.code	16
  99              		.thumb_func
 100              		.type	modbus_write_regs, %function
 101              	modbus_write_regs:
 102              	.LFB35:
  94:main.c        ****     }
  95:main.c        **** }
  96:main.c        **** 
  97:main.c        **** /**
  98:main.c        ****   * @brief Allows the user to define the slaves executed code based on the
  99:main.c        ****   * function code received by the modbus master.
 100:main.c        ****   * @param[in] function: The function code received from modbus master.
 101:main.c        ****   * See modbus.h for functioncode (FC) defintions.
 102:main.c        ****   * @param[in] msg: Pointer to received modbus data frame.
 103:main.c        ****   * @return The size of the modbus responce.
 104:main.c        ****   * Return -1 if a problem or error occurs (e.g Invalid register range).
 105:main.c        ****   */
 106:main.c        **** int8_t modbus_respond(uint8_t function, uint8_t *msg)
 107:main.c        **** {
 108:main.c        ****     switch (function)
 109:main.c        ****     {
 110:main.c        ****     case _FC_WRITE_SINGLE_REGISTER:
 111:main.c        ****     case _FC_WRITE_MULTIPLE_REGISTERS:
 112:main.c        ****         return modbus_write_regs(msg, function);
 113:main.c        ****     case _FC_READ_HOLDING_REGISTERS:
 114:main.c        ****         return modbus_read_regs(msg);
 115:main.c        ****     case _FC_REPORT_SLAVE_ID:
 116:main.c        ****         return modbus_slave_id_response(msg);
 117:main.c        ****     }
 118:main.c        ****     return -1;
 119:main.c        **** }
 120:main.c        **** 
 121:main.c        **** /**
 122:main.c        ****   * @brief Modbus messages send from master to slave. This function allows the 
 123:main.c        ****   * user to specify what code is executed when a Write single register (FC6) or 
 124:main.c        ****   * Write multiple register (FC16) function code is received.
 125:main.c        ****   * @param[in] function: The function code received from modbus master.
 126:main.c        ****   * See modbus.h for functioncode (FC) defintions.
ARM GAS  C:\Users\LUKEYO~1\AppData\Local\Temp\ccE59i0j.s 			page 5


 127:main.c        ****   * @param[in] msg: Pointer to received modbus data frame.
 128:main.c        ****   * @return The size of the modbus responce.
 129:main.c        ****   * Return -1 if a problem or error occurs (e.g Invalid register range).
 130:main.c        ****   */
 131:main.c        **** int8_t modbus_write_regs(uint8_t *msg, uint8_t function)
 132:main.c        **** {
 103              		.loc 1 132 0
 104              		.cfi_startproc
 105              		@ args = 0, pretend = 0, frame = 0
 106              		@ frame_needed = 0, uses_anonymous_args = 0
 107              	.LVL10:
 108 0000 10B5     		push	{r4, lr}
 109              		.cfi_def_cfa_offset 8
 110              		.cfi_offset 4, -8
 111              		.cfi_offset 14, -4
 112 0002 0400     		movs	r4, r0
 133:main.c        ****     mb_data_init(msg, function);
 113              		.loc 1 133 0
 114 0004 FFF7FEFF 		bl	mb_data_init
 115              	.LVL11:
 134:main.c        **** 
 135:main.c        ****     if (mb_nr_regs > MAX_NR_REGS(_FC_WRITE_MULTIPLE_REGISTERS))
 116              		.loc 1 135 0
 117 0008 3D4B     		ldr	r3, .L24
 118 000a 1B78     		ldrb	r3, [r3]
 119 000c 1B2B     		cmp	r3, #27
 120 000e 6AD9     		bls	.L7
 121 0010 6FE0     		b	.L22
 122              	.L21:
 136:main.c        ****         return -1;
 137:main.c        **** 
 138:main.c        ****     while (mb_nr_regs)
 139:main.c        ****     {
 140:main.c        ****         switch (mb_address)
 123              		.loc 1 140 0
 124 0012 3C4B     		ldr	r3, .L24+4
 125 0014 1A88     		ldrh	r2, [r3]
 126 0016 0A2A     		cmp	r2, #10
 127 0018 6ED8     		bhi	.L23
 128 001a 9300     		lsls	r3, r2, #2
 129 001c 3A4A     		ldr	r2, .L24+8
 130 001e D358     		ldr	r3, [r2, r3]
 131 0020 9F46     		mov	pc, r3
 132              		.section	.rodata
 133              		.align	2
 134              	.L9:
 135 0000 22000000 		.word	.L8
 136 0004 34000000 		.word	.L10
 137 0008 46000000 		.word	.L11
 138 000c 58000000 		.word	.L12
 139 0010 6A000000 		.word	.L13
 140 0014 7C000000 		.word	.L14
 141 0018 8E000000 		.word	.L15
 142 001c A0000000 		.word	.L16
 143 0020 B2000000 		.word	.L17
 144 0024 C4000000 		.word	.L18
 145 0028 D6000000 		.word	.L19
ARM GAS  C:\Users\LUKEYO~1\AppData\Local\Temp\ccE59i0j.s 			page 6


 146              		.section	.text.modbus_write_regs
 147              	.L8:
 141:main.c        ****         {
 142:main.c        ****         case 0:
 143:main.c        ****             // This section of code is entered when the modbus master sends a
 144:main.c        ****             // write register 0 request.
 145:main.c        **** 
 146:main.c        ****             // Update data[0] = to the value corresponding to modbus register 0
 147:main.c        ****             data[0] = mb_data_next(msg);
 148              		.loc 1 147 0
 149 0022 2000     		movs	r0, r4
 150 0024 FFF7FEFF 		bl	mb_data_next
 151              	.LVL12:
 152 0028 384B     		ldr	r3, .L24+12
 153 002a 1880     		strh	r0, [r3]
 148:main.c        ****             // USBUart debugging message
 149:main.c        ****             USB_UART_UartPutString("Register 0 Written to \r\n");
 154              		.loc 1 149 0
 155 002c 3848     		ldr	r0, .L24+16
 156 002e FFF7FEFF 		bl	USB_UART_UartPutString
 157              	.LVL13:
 150:main.c        ****             break;
 158              		.loc 1 150 0
 159 0032 58E0     		b	.L7
 160              	.L10:
 151:main.c        ****         case 1:
 152:main.c        ****             // This section of code is entered when the modbus master sends a
 153:main.c        ****             // write register 1 request.
 154:main.c        **** 
 155:main.c        ****             // Update data[1] = to the value corresponding to modbus register 1
 156:main.c        ****             data[1] = mb_data_next(msg);
 161              		.loc 1 156 0
 162 0034 2000     		movs	r0, r4
 163 0036 FFF7FEFF 		bl	mb_data_next
 164              	.LVL14:
 165 003a 344B     		ldr	r3, .L24+12
 166 003c 5880     		strh	r0, [r3, #2]
 157:main.c        ****             // USBUart debugging message
 158:main.c        ****             USB_UART_UartPutString("Register 1 Written to \r\n");
 167              		.loc 1 158 0
 168 003e 3548     		ldr	r0, .L24+20
 169 0040 FFF7FEFF 		bl	USB_UART_UartPutString
 170              	.LVL15:
 159:main.c        ****             break;
 171              		.loc 1 159 0
 172 0044 4FE0     		b	.L7
 173              	.L11:
 160:main.c        ****         case 2:
 161:main.c        ****             data[2] = mb_data_next(msg);
 174              		.loc 1 161 0
 175 0046 2000     		movs	r0, r4
 176 0048 FFF7FEFF 		bl	mb_data_next
 177              	.LVL16:
 178 004c 2F4B     		ldr	r3, .L24+12
 179 004e 9880     		strh	r0, [r3, #4]
 162:main.c        ****             USB_UART_UartPutString("Register 2 Written to \r\n");
 180              		.loc 1 162 0
ARM GAS  C:\Users\LUKEYO~1\AppData\Local\Temp\ccE59i0j.s 			page 7


 181 0050 3148     		ldr	r0, .L24+24
 182 0052 FFF7FEFF 		bl	USB_UART_UartPutString
 183              	.LVL17:
 163:main.c        ****             break;
 184              		.loc 1 163 0
 185 0056 46E0     		b	.L7
 186              	.L12:
 164:main.c        ****         case 3:
 165:main.c        ****             data[3] = mb_data_next(msg);
 187              		.loc 1 165 0
 188 0058 2000     		movs	r0, r4
 189 005a FFF7FEFF 		bl	mb_data_next
 190              	.LVL18:
 191 005e 2B4B     		ldr	r3, .L24+12
 192 0060 D880     		strh	r0, [r3, #6]
 166:main.c        ****             USB_UART_UartPutString("Register 3 Written to \r\n");
 193              		.loc 1 166 0
 194 0062 2E48     		ldr	r0, .L24+28
 195 0064 FFF7FEFF 		bl	USB_UART_UartPutString
 196              	.LVL19:
 167:main.c        ****             break;
 197              		.loc 1 167 0
 198 0068 3DE0     		b	.L7
 199              	.L13:
 168:main.c        ****         case 4:
 169:main.c        ****             data[4] = mb_data_next(msg);
 200              		.loc 1 169 0
 201 006a 2000     		movs	r0, r4
 202 006c FFF7FEFF 		bl	mb_data_next
 203              	.LVL20:
 204 0070 264B     		ldr	r3, .L24+12
 205 0072 1881     		strh	r0, [r3, #8]
 170:main.c        ****             USB_UART_UartPutString("Register 4 Written to \r\n");
 206              		.loc 1 170 0
 207 0074 2A48     		ldr	r0, .L24+32
 208 0076 FFF7FEFF 		bl	USB_UART_UartPutString
 209              	.LVL21:
 171:main.c        ****             break;
 210              		.loc 1 171 0
 211 007a 34E0     		b	.L7
 212              	.L14:
 172:main.c        ****         case 5:
 173:main.c        ****             data[5] = mb_data_next(msg);
 213              		.loc 1 173 0
 214 007c 2000     		movs	r0, r4
 215 007e FFF7FEFF 		bl	mb_data_next
 216              	.LVL22:
 217 0082 224B     		ldr	r3, .L24+12
 218 0084 5881     		strh	r0, [r3, #10]
 174:main.c        ****             USB_UART_UartPutString("Register 5 Written to \r\n");
 219              		.loc 1 174 0
 220 0086 2748     		ldr	r0, .L24+36
 221 0088 FFF7FEFF 		bl	USB_UART_UartPutString
 222              	.LVL23:
 175:main.c        ****             break;
 223              		.loc 1 175 0
 224 008c 2BE0     		b	.L7
ARM GAS  C:\Users\LUKEYO~1\AppData\Local\Temp\ccE59i0j.s 			page 8


 225              	.L15:
 176:main.c        ****         case 6:
 177:main.c        ****             data[6] = mb_data_next(msg);
 226              		.loc 1 177 0
 227 008e 2000     		movs	r0, r4
 228 0090 FFF7FEFF 		bl	mb_data_next
 229              	.LVL24:
 230 0094 1D4B     		ldr	r3, .L24+12
 231 0096 9881     		strh	r0, [r3, #12]
 178:main.c        ****             USB_UART_UartPutString("Register 6 Written to \r\n");
 232              		.loc 1 178 0
 233 0098 2348     		ldr	r0, .L24+40
 234 009a FFF7FEFF 		bl	USB_UART_UartPutString
 235              	.LVL25:
 179:main.c        ****             break;
 236              		.loc 1 179 0
 237 009e 22E0     		b	.L7
 238              	.L16:
 180:main.c        ****         case 7:
 181:main.c        ****             data[7] = mb_data_next(msg);
 239              		.loc 1 181 0
 240 00a0 2000     		movs	r0, r4
 241 00a2 FFF7FEFF 		bl	mb_data_next
 242              	.LVL26:
 243 00a6 194B     		ldr	r3, .L24+12
 244 00a8 D881     		strh	r0, [r3, #14]
 182:main.c        ****             USB_UART_UartPutString("Register 7 Written to \r\n");
 245              		.loc 1 182 0
 246 00aa 2048     		ldr	r0, .L24+44
 247 00ac FFF7FEFF 		bl	USB_UART_UartPutString
 248              	.LVL27:
 183:main.c        ****             break;
 249              		.loc 1 183 0
 250 00b0 19E0     		b	.L7
 251              	.L17:
 184:main.c        ****         case 8:
 185:main.c        ****             data[8] = mb_data_next(msg);
 252              		.loc 1 185 0
 253 00b2 2000     		movs	r0, r4
 254 00b4 FFF7FEFF 		bl	mb_data_next
 255              	.LVL28:
 256 00b8 144B     		ldr	r3, .L24+12
 257 00ba 1882     		strh	r0, [r3, #16]
 186:main.c        ****             USB_UART_UartPutString("Register 8 Written to \r\n");
 258              		.loc 1 186 0
 259 00bc 1C48     		ldr	r0, .L24+48
 260 00be FFF7FEFF 		bl	USB_UART_UartPutString
 261              	.LVL29:
 187:main.c        ****             break;
 262              		.loc 1 187 0
 263 00c2 10E0     		b	.L7
 264              	.L18:
 188:main.c        ****         case 9:
 189:main.c        ****             data[9] = mb_data_next(msg);
 265              		.loc 1 189 0
 266 00c4 2000     		movs	r0, r4
 267 00c6 FFF7FEFF 		bl	mb_data_next
ARM GAS  C:\Users\LUKEYO~1\AppData\Local\Temp\ccE59i0j.s 			page 9


 268              	.LVL30:
 269 00ca 104B     		ldr	r3, .L24+12
 270 00cc 5882     		strh	r0, [r3, #18]
 190:main.c        ****             USB_UART_UartPutString("Register 9 Written to \r\n");
 271              		.loc 1 190 0
 272 00ce 1948     		ldr	r0, .L24+52
 273 00d0 FFF7FEFF 		bl	USB_UART_UartPutString
 274              	.LVL31:
 191:main.c        ****             break;
 275              		.loc 1 191 0
 276 00d4 07E0     		b	.L7
 277              	.L19:
 192:main.c        ****         case 10:
 193:main.c        ****             data[10] = mb_data_next(msg);
 278              		.loc 1 193 0
 279 00d6 2000     		movs	r0, r4
 280 00d8 FFF7FEFF 		bl	mb_data_next
 281              	.LVL32:
 282 00dc 0B4B     		ldr	r3, .L24+12
 283 00de 9882     		strh	r0, [r3, #20]
 194:main.c        ****             USB_UART_UartPutString("Register 10 Written to \r\n");
 284              		.loc 1 194 0
 285 00e0 1548     		ldr	r0, .L24+56
 286 00e2 FFF7FEFF 		bl	USB_UART_UartPutString
 287              	.LVL33:
 288              	.L7:
 138:main.c        ****     {
 289              		.loc 1 138 0
 290 00e6 064B     		ldr	r3, .L24
 291 00e8 1B78     		ldrb	r3, [r3]
 292 00ea 002B     		cmp	r3, #0
 293 00ec 91D1     		bne	.L21
 195:main.c        ****             break;
 196:main.c        ****         default:
 197:main.c        ****             return -1;
 198:main.c        ****         }
 199:main.c        ****     }
 200:main.c        ****     return MODBUS_WRITE_RESP_SIZE;
 294              		.loc 1 200 0
 295 00ee 0420     		movs	r0, #4
 296 00f0 04E0     		b	.L6
 297              	.L22:
 136:main.c        **** 
 298              		.loc 1 136 0
 299 00f2 0120     		movs	r0, #1
 300 00f4 4042     		rsbs	r0, r0, #0
 301 00f6 01E0     		b	.L6
 302              	.L23:
 197:main.c        ****         }
 303              		.loc 1 197 0
 304 00f8 0120     		movs	r0, #1
 305 00fa 4042     		rsbs	r0, r0, #0
 306              	.L6:
 201:main.c        **** }
 307              		.loc 1 201 0
 308              		@ sp needed
 309              	.LVL34:
ARM GAS  C:\Users\LUKEYO~1\AppData\Local\Temp\ccE59i0j.s 			page 10


 310 00fc 10BD     		pop	{r4, pc}
 311              	.L25:
 312 00fe C046     		.align	2
 313              	.L24:
 314 0100 00000000 		.word	mb_nr_regs
 315 0104 00000000 		.word	mb_address
 316 0108 00000000 		.word	.L9
 317 010c 00000000 		.word	data
 318 0110 18000000 		.word	.LC7
 319 0114 34000000 		.word	.LC9
 320 0118 50000000 		.word	.LC11
 321 011c 6C000000 		.word	.LC13
 322 0120 88000000 		.word	.LC15
 323 0124 A4000000 		.word	.LC17
 324 0128 C0000000 		.word	.LC19
 325 012c DC000000 		.word	.LC21
 326 0130 F8000000 		.word	.LC23
 327 0134 14010000 		.word	.LC25
 328 0138 30010000 		.word	.LC27
 329              		.cfi_endproc
 330              	.LFE35:
 331              		.size	modbus_write_regs, .-modbus_write_regs
 332              		.section	.text.modbus_read_regs,"ax",%progbits
 333              		.align	2
 334              		.global	modbus_read_regs
 335              		.code	16
 336              		.thumb_func
 337              		.type	modbus_read_regs, %function
 338              	modbus_read_regs:
 339              	.LFB36:
 202:main.c        **** 
 203:main.c        **** /**
 204:main.c        ****   * @brief Modbus messages send from slave to master. This function allows the 
 205:main.c        ****   * user to specify the code executed when a Read holding registers (FC3) 
 206:main.c        ****   * message is received.
 207:main.c        ****   * @param[in] msg: Pointer to received modbus data frame.
 208:main.c        ****   * @return The size of the modbus responce.
 209:main.c        ****   * Return -1 if a problem or error occurs (e.g Invalid register range).
 210:main.c        ****   */
 211:main.c        **** int8_t modbus_read_regs(uint8_t *msg)
 212:main.c        **** {
 340              		.loc 1 212 0
 341              		.cfi_startproc
 342              		@ args = 0, pretend = 0, frame = 0
 343              		@ frame_needed = 0, uses_anonymous_args = 0
 344              	.LVL35:
 345 0000 10B5     		push	{r4, lr}
 346              		.cfi_def_cfa_offset 8
 347              		.cfi_offset 4, -8
 348              		.cfi_offset 14, -4
 349 0002 0400     		movs	r4, r0
 213:main.c        ****     mb_data_init(msg, _FC_READ_HOLDING_REGISTERS);
 350              		.loc 1 213 0
 351 0004 0321     		movs	r1, #3
 352 0006 FFF7FEFF 		bl	mb_data_init
 353              	.LVL36:
 214:main.c        **** 
ARM GAS  C:\Users\LUKEYO~1\AppData\Local\Temp\ccE59i0j.s 			page 11


 215:main.c        ****     if (mb_nr_regs > MAX_NR_REGS(_FC_READ_HOLDING_REGISTERS))
 354              		.loc 1 215 0
 355 000a 3E4B     		ldr	r3, .L45
 356 000c 1B78     		ldrb	r3, [r3]
 357 000e 1D2B     		cmp	r3, #29
 358 0010 6AD9     		bls	.L28
 359 0012 71E0     		b	.L43
 360              	.L42:
 216:main.c        ****         return -1;
 217:main.c        **** 
 218:main.c        ****     while (mb_nr_regs)
 219:main.c        ****     {
 220:main.c        ****         switch (mb_address)
 361              		.loc 1 220 0
 362 0014 3C4B     		ldr	r3, .L45+4
 363 0016 1A88     		ldrh	r2, [r3]
 364 0018 0A2A     		cmp	r2, #10
 365 001a 70D8     		bhi	.L44
 366 001c 9300     		lsls	r3, r2, #2
 367 001e 3B4A     		ldr	r2, .L45+8
 368 0020 D358     		ldr	r3, [r2, r3]
 369 0022 9F46     		mov	pc, r3
 370              		.section	.rodata
 371              		.align	2
 372              	.L30:
 373 002c 24000000 		.word	.L29
 374 0030 36000000 		.word	.L31
 375 0034 48000000 		.word	.L32
 376 0038 5A000000 		.word	.L33
 377 003c 6C000000 		.word	.L34
 378 0040 7E000000 		.word	.L35
 379 0044 90000000 		.word	.L36
 380 0048 A2000000 		.word	.L37
 381 004c B4000000 		.word	.L38
 382 0050 C6000000 		.word	.L39
 383 0054 D8000000 		.word	.L40
 384              		.section	.text.modbus_read_regs
 385              	.L29:
 221:main.c        ****         {
 222:main.c        ****         case 0:
 223:main.c        ****             // This section of code is entered when the modbus master sends a
 224:main.c        ****             // read register 0 request.
 225:main.c        **** 
 226:main.c        ****             // Add the value "data[0]" to the responce/reply data frame
 227:main.c        ****             mb_data_resp(msg, data[0]);
 386              		.loc 1 227 0
 387 0024 3A4B     		ldr	r3, .L45+12
 388 0026 1988     		ldrh	r1, [r3]
 389 0028 2000     		movs	r0, r4
 390 002a FFF7FEFF 		bl	mb_data_resp
 391              	.LVL37:
 228:main.c        ****             // USBUart debugging message
 229:main.c        ****             USB_UART_UartPutString("Register 0 Read from \r\n");
 392              		.loc 1 229 0
 393 002e 3948     		ldr	r0, .L45+16
 394 0030 FFF7FEFF 		bl	USB_UART_UartPutString
 395              	.LVL38:
ARM GAS  C:\Users\LUKEYO~1\AppData\Local\Temp\ccE59i0j.s 			page 12


 230:main.c        ****             break;
 396              		.loc 1 230 0
 397 0034 58E0     		b	.L28
 398              	.L31:
 231:main.c        ****         case 1:
 232:main.c        ****             // This section of code is entered when the modbus master sends a
 233:main.c        ****             // read register 1 request.
 234:main.c        **** 
 235:main.c        ****             // Add the value "data[1]" to the responce/reply data frame
 236:main.c        ****             mb_data_resp(msg, data[1]);
 399              		.loc 1 236 0
 400 0036 364B     		ldr	r3, .L45+12
 401 0038 5988     		ldrh	r1, [r3, #2]
 402 003a 2000     		movs	r0, r4
 403 003c FFF7FEFF 		bl	mb_data_resp
 404              	.LVL39:
 237:main.c        ****             // USBUart debugging message
 238:main.c        ****             USB_UART_UartPutString("Register 1 Read from \r\n");
 405              		.loc 1 238 0
 406 0040 3548     		ldr	r0, .L45+20
 407 0042 FFF7FEFF 		bl	USB_UART_UartPutString
 408              	.LVL40:
 239:main.c        ****             break;
 409              		.loc 1 239 0
 410 0046 4FE0     		b	.L28
 411              	.L32:
 240:main.c        ****         case 2:
 241:main.c        ****             mb_data_resp(msg, data[2]);
 412              		.loc 1 241 0
 413 0048 314B     		ldr	r3, .L45+12
 414 004a 9988     		ldrh	r1, [r3, #4]
 415 004c 2000     		movs	r0, r4
 416 004e FFF7FEFF 		bl	mb_data_resp
 417              	.LVL41:
 242:main.c        ****             USB_UART_UartPutString("Register 2 Read from \r\n");
 418              		.loc 1 242 0
 419 0052 3248     		ldr	r0, .L45+24
 420 0054 FFF7FEFF 		bl	USB_UART_UartPutString
 421              	.LVL42:
 243:main.c        ****             break;
 422              		.loc 1 243 0
 423 0058 46E0     		b	.L28
 424              	.L33:
 244:main.c        ****         case 3:
 245:main.c        ****             mb_data_resp(msg, data[3]);
 425              		.loc 1 245 0
 426 005a 2D4B     		ldr	r3, .L45+12
 427 005c D988     		ldrh	r1, [r3, #6]
 428 005e 2000     		movs	r0, r4
 429 0060 FFF7FEFF 		bl	mb_data_resp
 430              	.LVL43:
 246:main.c        ****             USB_UART_UartPutString("Register 3 Read from \r\n");
 431              		.loc 1 246 0
 432 0064 2E48     		ldr	r0, .L45+28
 433 0066 FFF7FEFF 		bl	USB_UART_UartPutString
 434              	.LVL44:
 247:main.c        ****             break;
ARM GAS  C:\Users\LUKEYO~1\AppData\Local\Temp\ccE59i0j.s 			page 13


 435              		.loc 1 247 0
 436 006a 3DE0     		b	.L28
 437              	.L34:
 248:main.c        ****         case 4:
 249:main.c        ****             mb_data_resp(msg, data[4]);
 438              		.loc 1 249 0
 439 006c 284B     		ldr	r3, .L45+12
 440 006e 1989     		ldrh	r1, [r3, #8]
 441 0070 2000     		movs	r0, r4
 442 0072 FFF7FEFF 		bl	mb_data_resp
 443              	.LVL45:
 250:main.c        ****             USB_UART_UartPutString("Register 4 Read from \r\n");
 444              		.loc 1 250 0
 445 0076 2B48     		ldr	r0, .L45+32
 446 0078 FFF7FEFF 		bl	USB_UART_UartPutString
 447              	.LVL46:
 251:main.c        ****             break;
 448              		.loc 1 251 0
 449 007c 34E0     		b	.L28
 450              	.L35:
 252:main.c        ****         case 5:
 253:main.c        ****             mb_data_resp(msg, data[5]);
 451              		.loc 1 253 0
 452 007e 244B     		ldr	r3, .L45+12
 453 0080 5989     		ldrh	r1, [r3, #10]
 454 0082 2000     		movs	r0, r4
 455 0084 FFF7FEFF 		bl	mb_data_resp
 456              	.LVL47:
 254:main.c        ****             USB_UART_UartPutString("Register 5 Read from \r\n");
 457              		.loc 1 254 0
 458 0088 2748     		ldr	r0, .L45+36
 459 008a FFF7FEFF 		bl	USB_UART_UartPutString
 460              	.LVL48:
 255:main.c        ****             break;
 461              		.loc 1 255 0
 462 008e 2BE0     		b	.L28
 463              	.L36:
 256:main.c        ****         case 6:
 257:main.c        ****             mb_data_resp(msg, data[6]);
 464              		.loc 1 257 0
 465 0090 1F4B     		ldr	r3, .L45+12
 466 0092 9989     		ldrh	r1, [r3, #12]
 467 0094 2000     		movs	r0, r4
 468 0096 FFF7FEFF 		bl	mb_data_resp
 469              	.LVL49:
 258:main.c        ****             USB_UART_UartPutString("Register 6 Read from \r\n");
 470              		.loc 1 258 0
 471 009a 2448     		ldr	r0, .L45+40
 472 009c FFF7FEFF 		bl	USB_UART_UartPutString
 473              	.LVL50:
 259:main.c        ****             break;
 474              		.loc 1 259 0
 475 00a0 22E0     		b	.L28
 476              	.L37:
 260:main.c        ****         case 7:
 261:main.c        ****             mb_data_resp(msg, data[7]);
 477              		.loc 1 261 0
ARM GAS  C:\Users\LUKEYO~1\AppData\Local\Temp\ccE59i0j.s 			page 14


 478 00a2 1B4B     		ldr	r3, .L45+12
 479 00a4 D989     		ldrh	r1, [r3, #14]
 480 00a6 2000     		movs	r0, r4
 481 00a8 FFF7FEFF 		bl	mb_data_resp
 482              	.LVL51:
 262:main.c        ****             USB_UART_UartPutString("Register 7 Read from \r\n");
 483              		.loc 1 262 0
 484 00ac 2048     		ldr	r0, .L45+44
 485 00ae FFF7FEFF 		bl	USB_UART_UartPutString
 486              	.LVL52:
 263:main.c        ****             break;
 487              		.loc 1 263 0
 488 00b2 19E0     		b	.L28
 489              	.L38:
 264:main.c        ****         case 8:
 265:main.c        ****             mb_data_resp(msg, data[8]);
 490              		.loc 1 265 0
 491 00b4 164B     		ldr	r3, .L45+12
 492 00b6 198A     		ldrh	r1, [r3, #16]
 493 00b8 2000     		movs	r0, r4
 494 00ba FFF7FEFF 		bl	mb_data_resp
 495              	.LVL53:
 266:main.c        ****             USB_UART_UartPutString("Register 8 Read from \r\n");
 496              		.loc 1 266 0
 497 00be 1D48     		ldr	r0, .L45+48
 498 00c0 FFF7FEFF 		bl	USB_UART_UartPutString
 499              	.LVL54:
 267:main.c        ****             break;
 500              		.loc 1 267 0
 501 00c4 10E0     		b	.L28
 502              	.L39:
 268:main.c        ****         case 9:
 269:main.c        ****             mb_data_resp(msg, data[9]);
 503              		.loc 1 269 0
 504 00c6 124B     		ldr	r3, .L45+12
 505 00c8 598A     		ldrh	r1, [r3, #18]
 506 00ca 2000     		movs	r0, r4
 507 00cc FFF7FEFF 		bl	mb_data_resp
 508              	.LVL55:
 270:main.c        ****             USB_UART_UartPutString("Register 9 Read from \r\n");
 509              		.loc 1 270 0
 510 00d0 1948     		ldr	r0, .L45+52
 511 00d2 FFF7FEFF 		bl	USB_UART_UartPutString
 512              	.LVL56:
 271:main.c        ****             break;
 513              		.loc 1 271 0
 514 00d6 07E0     		b	.L28
 515              	.L40:
 272:main.c        ****         case 10:
 273:main.c        ****             mb_data_resp(msg, data[10]);
 516              		.loc 1 273 0
 517 00d8 0D4B     		ldr	r3, .L45+12
 518 00da 998A     		ldrh	r1, [r3, #20]
 519 00dc 2000     		movs	r0, r4
 520 00de FFF7FEFF 		bl	mb_data_resp
 521              	.LVL57:
 274:main.c        ****             USB_UART_UartPutString("Register 10 Read from \r\n");
ARM GAS  C:\Users\LUKEYO~1\AppData\Local\Temp\ccE59i0j.s 			page 15


 522              		.loc 1 274 0
 523 00e2 1648     		ldr	r0, .L45+56
 524 00e4 FFF7FEFF 		bl	USB_UART_UartPutString
 525              	.LVL58:
 526              	.L28:
 218:main.c        ****     {
 527              		.loc 1 218 0
 528 00e8 064B     		ldr	r3, .L45
 529 00ea 1B78     		ldrb	r3, [r3]
 530 00ec 002B     		cmp	r3, #0
 531 00ee 91D1     		bne	.L42
 275:main.c        ****             break;
 276:main.c        ****         default:
 277:main.c        ****             return -1;
 278:main.c        ****         }
 279:main.c        ****     }
 280:main.c        ****     return mb_resp_bytes;
 532              		.loc 1 280 0
 533 00f0 134B     		ldr	r3, .L45+60
 534 00f2 0020     		movs	r0, #0
 535 00f4 1856     		ldrsb	r0, [r3, r0]
 536 00f6 04E0     		b	.L27
 537              	.L43:
 216:main.c        **** 
 538              		.loc 1 216 0
 539 00f8 0120     		movs	r0, #1
 540 00fa 4042     		rsbs	r0, r0, #0
 541 00fc 01E0     		b	.L27
 542              	.L44:
 277:main.c        ****         }
 543              		.loc 1 277 0
 544 00fe 0120     		movs	r0, #1
 545 0100 4042     		rsbs	r0, r0, #0
 546              	.L27:
 281:main.c        **** }
 547              		.loc 1 281 0
 548              		@ sp needed
 549              	.LVL59:
 550 0102 10BD     		pop	{r4, pc}
 551              	.L46:
 552              		.align	2
 553              	.L45:
 554 0104 00000000 		.word	mb_nr_regs
 555 0108 00000000 		.word	mb_address
 556 010c 2C000000 		.word	.L30
 557 0110 00000000 		.word	data
 558 0114 4C010000 		.word	.LC33
 559 0118 64010000 		.word	.LC35
 560 011c 7C010000 		.word	.LC37
 561 0120 94010000 		.word	.LC39
 562 0124 AC010000 		.word	.LC41
 563 0128 C4010000 		.word	.LC43
 564 012c DC010000 		.word	.LC45
 565 0130 F4010000 		.word	.LC47
 566 0134 0C020000 		.word	.LC49
 567 0138 24020000 		.word	.LC51
 568 013c 3C020000 		.word	.LC53
ARM GAS  C:\Users\LUKEYO~1\AppData\Local\Temp\ccE59i0j.s 			page 16


 569 0140 00000000 		.word	mb_resp_bytes
 570              		.cfi_endproc
 571              	.LFE36:
 572              		.size	modbus_read_regs, .-modbus_read_regs
 573              		.section	.text.modbus_respond,"ax",%progbits
 574              		.align	2
 575              		.global	modbus_respond
 576              		.code	16
 577              		.thumb_func
 578              		.type	modbus_respond, %function
 579              	modbus_respond:
 580              	.LFB34:
 107:main.c        ****     switch (function)
 581              		.loc 1 107 0
 582              		.cfi_startproc
 583              		@ args = 0, pretend = 0, frame = 0
 584              		@ frame_needed = 0, uses_anonymous_args = 0
 585              	.LVL60:
 586 0000 10B5     		push	{r4, lr}
 587              		.cfi_def_cfa_offset 8
 588              		.cfi_offset 4, -8
 589              		.cfi_offset 14, -4
 590 0002 0B00     		movs	r3, r1
 108:main.c        ****     {
 591              		.loc 1 108 0
 592 0004 0628     		cmp	r0, #6
 593 0006 08D0     		beq	.L49
 594 0008 02D8     		bhi	.L50
 595 000a 0328     		cmp	r0, #3
 596 000c 0AD0     		beq	.L51
 597 000e 11E0     		b	.L53
 598              	.L50:
 599 0010 1028     		cmp	r0, #16
 600 0012 02D0     		beq	.L49
 601 0014 1128     		cmp	r0, #17
 602 0016 09D0     		beq	.L52
 603 0018 0CE0     		b	.L53
 604              	.L49:
 112:main.c        ****     case _FC_READ_HOLDING_REGISTERS:
 605              		.loc 1 112 0
 606 001a 0100     		movs	r1, r0
 607              	.LVL61:
 608 001c 1800     		movs	r0, r3
 609              	.LVL62:
 610 001e FFF7FEFF 		bl	modbus_write_regs
 611              	.LVL63:
 612 0022 09E0     		b	.L48
 613              	.LVL64:
 614              	.L51:
 114:main.c        ****     case _FC_REPORT_SLAVE_ID:
 615              		.loc 1 114 0
 616 0024 0800     		movs	r0, r1
 617              	.LVL65:
 618 0026 FFF7FEFF 		bl	modbus_read_regs
 619              	.LVL66:
 620 002a 05E0     		b	.L48
 621              	.LVL67:
ARM GAS  C:\Users\LUKEYO~1\AppData\Local\Temp\ccE59i0j.s 			page 17


 622              	.L52:
 116:main.c        ****     }
 623              		.loc 1 116 0
 624 002c 0800     		movs	r0, r1
 625              	.LVL68:
 626 002e FFF7FEFF 		bl	modbus_slave_id_response
 627              	.LVL69:
 628 0032 01E0     		b	.L48
 629              	.LVL70:
 630              	.L53:
 118:main.c        **** }
 631              		.loc 1 118 0
 632 0034 0120     		movs	r0, #1
 633              	.LVL71:
 634 0036 4042     		rsbs	r0, r0, #0
 635              	.LVL72:
 636              	.L48:
 119:main.c        **** 
 637              		.loc 1 119 0
 638              		@ sp needed
 639 0038 10BD     		pop	{r4, pc}
 640              		.cfi_endproc
 641              	.LFE34:
 642              		.size	modbus_respond, .-modbus_respond
 643              		.comm	data,40,4
 644              		.comm	_modbus_timer_finished,1,1
 645 003a C046     		.section	.rodata.str1.4,"aMS",%progbits,1
 646              		.align	2
 647              	.LC1:
 648 0000 53746172 		.ascii	"Start_Up_USB_UART \015\012\000"
 648      745F5570 
 648      5F555342 
 648      5F554152 
 648      54200D0A 
 649 0015 000000   		.space	3
 650              	.LC7:
 651 0018 52656769 		.ascii	"Register 0 Written to \015\012\000"
 651      73746572 
 651      20302057 
 651      72697474 
 651      656E2074 
 652 0031 000000   		.space	3
 653              	.LC9:
 654 0034 52656769 		.ascii	"Register 1 Written to \015\012\000"
 654      73746572 
 654      20312057 
 654      72697474 
 654      656E2074 
 655 004d 000000   		.space	3
 656              	.LC11:
 657 0050 52656769 		.ascii	"Register 2 Written to \015\012\000"
 657      73746572 
 657      20322057 
 657      72697474 
 657      656E2074 
 658 0069 000000   		.space	3
 659              	.LC13:
ARM GAS  C:\Users\LUKEYO~1\AppData\Local\Temp\ccE59i0j.s 			page 18


 660 006c 52656769 		.ascii	"Register 3 Written to \015\012\000"
 660      73746572 
 660      20332057 
 660      72697474 
 660      656E2074 
 661 0085 000000   		.space	3
 662              	.LC15:
 663 0088 52656769 		.ascii	"Register 4 Written to \015\012\000"
 663      73746572 
 663      20342057 
 663      72697474 
 663      656E2074 
 664 00a1 000000   		.space	3
 665              	.LC17:
 666 00a4 52656769 		.ascii	"Register 5 Written to \015\012\000"
 666      73746572 
 666      20352057 
 666      72697474 
 666      656E2074 
 667 00bd 000000   		.space	3
 668              	.LC19:
 669 00c0 52656769 		.ascii	"Register 6 Written to \015\012\000"
 669      73746572 
 669      20362057 
 669      72697474 
 669      656E2074 
 670 00d9 000000   		.space	3
 671              	.LC21:
 672 00dc 52656769 		.ascii	"Register 7 Written to \015\012\000"
 672      73746572 
 672      20372057 
 672      72697474 
 672      656E2074 
 673 00f5 000000   		.space	3
 674              	.LC23:
 675 00f8 52656769 		.ascii	"Register 8 Written to \015\012\000"
 675      73746572 
 675      20382057 
 675      72697474 
 675      656E2074 
 676 0111 000000   		.space	3
 677              	.LC25:
 678 0114 52656769 		.ascii	"Register 9 Written to \015\012\000"
 678      73746572 
 678      20392057 
 678      72697474 
 678      656E2074 
 679 012d 000000   		.space	3
 680              	.LC27:
 681 0130 52656769 		.ascii	"Register 10 Written to \015\012\000"
 681      73746572 
 681      20313020 
 681      57726974 
 681      74656E20 
 682 014a 0000     		.space	2
 683              	.LC33:
 684 014c 52656769 		.ascii	"Register 0 Read from \015\012\000"
ARM GAS  C:\Users\LUKEYO~1\AppData\Local\Temp\ccE59i0j.s 			page 19


 684      73746572 
 684      20302052 
 684      65616420 
 684      66726F6D 
 685              	.LC35:
 686 0164 52656769 		.ascii	"Register 1 Read from \015\012\000"
 686      73746572 
 686      20312052 
 686      65616420 
 686      66726F6D 
 687              	.LC37:
 688 017c 52656769 		.ascii	"Register 2 Read from \015\012\000"
 688      73746572 
 688      20322052 
 688      65616420 
 688      66726F6D 
 689              	.LC39:
 690 0194 52656769 		.ascii	"Register 3 Read from \015\012\000"
 690      73746572 
 690      20332052 
 690      65616420 
 690      66726F6D 
 691              	.LC41:
 692 01ac 52656769 		.ascii	"Register 4 Read from \015\012\000"
 692      73746572 
 692      20342052 
 692      65616420 
 692      66726F6D 
 693              	.LC43:
 694 01c4 52656769 		.ascii	"Register 5 Read from \015\012\000"
 694      73746572 
 694      20352052 
 694      65616420 
 694      66726F6D 
 695              	.LC45:
 696 01dc 52656769 		.ascii	"Register 6 Read from \015\012\000"
 696      73746572 
 696      20362052 
 696      65616420 
 696      66726F6D 
 697              	.LC47:
 698 01f4 52656769 		.ascii	"Register 7 Read from \015\012\000"
 698      73746572 
 698      20372052 
 698      65616420 
 698      66726F6D 
 699              	.LC49:
 700 020c 52656769 		.ascii	"Register 8 Read from \015\012\000"
 700      73746572 
 700      20382052 
 700      65616420 
 700      66726F6D 
 701              	.LC51:
 702 0224 52656769 		.ascii	"Register 9 Read from \015\012\000"
 702      73746572 
 702      20392052 
 702      65616420 
ARM GAS  C:\Users\LUKEYO~1\AppData\Local\Temp\ccE59i0j.s 			page 20


 702      66726F6D 
 703              	.LC53:
 704 023c 52656769 		.ascii	"Register 10 Read from \015\012\000"
 704      73746572 
 704      20313020 
 704      52656164 
 704      2066726F 
 705              		.text
 706              	.Letext0:
 707              		.file 2 "c:\\program files (x86)\\cypress\\psoc creator\\4.2\\psoc creator\\import\\gnu\\arm\\5.4.
 708              		.file 3 "c:\\program files (x86)\\cypress\\psoc creator\\4.2\\psoc creator\\import\\gnu\\arm\\5.4.
 709              		.file 4 "../../src/modbus.h"
 710              		.file 5 "Generated_Source\\PSoC4/MODBUS_TIMER.h"
 711              		.file 6 "Generated_Source\\PSoC4/USB_UART.h"
 712              		.file 7 "Generated_Source\\PSoC4/USB_UART_SPI_UART.h"
 713              		.file 8 "Generated_Source\\PSoC4/LED1.h"
 714              		.file 9 "Generated_Source\\PSoC4/CyLib.h"