ARM GAS  C:\Users\LUKEYO~1\AppData\Local\Temp\cc8QidXF.s 			page 1


   1              		.syntax unified
   2              		.cpu cortex-m0
   3              		.fpu softvfp
   4              		.eabi_attribute 20, 1
   5              		.eabi_attribute 21, 1
   6              		.eabi_attribute 23, 3
   7              		.eabi_attribute 24, 1
   8              		.eabi_attribute 25, 1
   9              		.eabi_attribute 26, 1
  10              		.eabi_attribute 30, 1
  11              		.eabi_attribute 34, 0
  12              		.eabi_attribute 18, 4
  13              		.thumb
  14              		.syntax unified
  15              		.file	"modbus.c"
  16              		.text
  17              	.Ltext0:
  18              		.cfi_sections	.debug_frame
  19              		.section	.text.crc16_update,"ax",%progbits
  20              		.align	2
  21              		.code	16
  22              		.thumb_func
  23              		.type	crc16_update, %function
  24              	crc16_update:
  25              	.LFB32:
  26              		.file 1 "..\\..\\src\\modbus.c"
   1:..\..\src/modbus.c **** /**
   2:..\..\src/modbus.c ****  * @file    modbus.c
   3:..\..\src/modbus.c ****  * @brief   Modbus RTU stack and API
   4:..\..\src/modbus.c ****  * @author  Luke Young (L S Young Electrical)
   5:..\..\src/modbus.c ****  * 
   6:..\..\src/modbus.c ****  * Slightly amended version of 
   7:..\..\src/modbus.c ****  * uC_Modbus by Kim Taylor <https://github.com/kmtaylor>
   8:..\..\src/modbus.c ****  * 
   9:..\..\src/modbus.c ****  * Based on libmodbus by Stéphane Raimbault <stephane.raimbault@gmail.com>
  10:..\..\src/modbus.c ****  *
  11:..\..\src/modbus.c ****  * @copyright
  12:..\..\src/modbus.c ****  * This library is free software; you can redistribute it and/or
  13:..\..\src/modbus.c ****  * modify it under the terms of the GNU Lesser General Public
  14:..\..\src/modbus.c ****  * License as published by the Free Software Foundation; either
  15:..\..\src/modbus.c ****  * version 2.1 of the License, or (at your option) any later version.
  16:..\..\src/modbus.c ****  * 
  17:..\..\src/modbus.c ****  * This library is distributed in the hope that it will be useful,
  18:..\..\src/modbus.c ****  * but WITHOUT ANY WARRANTY; without even the implied warranty of
  19:..\..\src/modbus.c ****  * MERCHANTABILITY or FITNESS FOR A PARTICULAR PURPOSE.  See the GNU
  20:..\..\src/modbus.c ****  * Lesser General Public License for more details.
  21:..\..\src/modbus.c ****  */
  22:..\..\src/modbus.c **** 
  23:..\..\src/modbus.c **** #include "modbus.h"
  24:..\..\src/modbus.c **** 
  25:..\..\src/modbus.c **** static uint8_t modbus_msg[MODBUS_MAX_PACKET_LENGTH];
  26:..\..\src/modbus.c **** volatile uint8_t _modbus_timer_finished = 0;
  27:..\..\src/modbus.c **** static uint8_t _forwarding = 0;
  28:..\..\src/modbus.c **** 
  29:..\..\src/modbus.c **** #if MODBUS_USE_FUNCTION_POINTERS
  30:..\..\src/modbus.c **** static modbus_write_t _modbus_write;
  31:..\..\src/modbus.c **** static modbus_read_ready_t _modbus_read_ready;
ARM GAS  C:\Users\LUKEYO~1\AppData\Local\Temp\cc8QidXF.s 			page 2


  32:..\..\src/modbus.c **** static modbus_read_t _modbus_read;
  33:..\..\src/modbus.c **** static modbus_process_t _modbus_process;
  34:..\..\src/modbus.c **** static modbus_forward_t _modbus_forward;
  35:..\..\src/modbus.c **** #else
  36:..\..\src/modbus.c **** #define _modbus_write MODBUS_WRITE_FUNC
  37:..\..\src/modbus.c **** #define _modbus_read_ready MODBUS_READ_READY_FUNC
  38:..\..\src/modbus.c **** #define _modbus_read MODBUS_READ_FUNC
  39:..\..\src/modbus.c **** #define _modbus_process MODBUS_PROCESS_FUNC
  40:..\..\src/modbus.c **** #define _modbus_forward MODBUS_FORWARD_FUNC
  41:..\..\src/modbus.c **** int8_t _modbus_process(uint8_t function, uint8_t *msg);
  42:..\..\src/modbus.c **** #endif
  43:..\..\src/modbus.c **** 
  44:..\..\src/modbus.c **** static uint16_t mb_buf_to_val(uint8_t *buf);
  45:..\..\src/modbus.c **** static uint8_t mb_val_to_buf(uint8_t *buf, uint16_t val);
  46:..\..\src/modbus.c **** 
  47:..\..\src/modbus.c **** static void (*_tx_led_enable)(uint8_t val) = NULL;
  48:..\..\src/modbus.c **** static void (*_rx_led_enable)(uint8_t val) = NULL;
  49:..\..\src/modbus.c **** static uint8_t _tx_led_enable_val;
  50:..\..\src/modbus.c **** static uint8_t _rx_led_enable_val;
  51:..\..\src/modbus.c **** static uint8_t _slave_addr;
  52:..\..\src/modbus.c **** 
  53:..\..\src/modbus.c **** #define CRC16_POLY 0xA001
  54:..\..\src/modbus.c **** #define CRC16_INIT 0xFFFF
  55:..\..\src/modbus.c **** #define CRC_0(crc) (crc & 0xff)
  56:..\..\src/modbus.c **** #define CRC_1(crc) (crc >> 8)
  57:..\..\src/modbus.c **** 
  58:..\..\src/modbus.c **** #define MODBUS_SLAVE_OFFSET 0
  59:..\..\src/modbus.c **** #define MODBUS_FUNCTION_OFFSET 1
  60:..\..\src/modbus.c **** 
  61:..\..\src/modbus.c **** static uint16_t crc16_update(uint16_t crc, uint8_t _data)
  62:..\..\src/modbus.c **** {
  27              		.loc 1 62 0
  28              		.cfi_startproc
  29              		@ args = 0, pretend = 0, frame = 0
  30              		@ frame_needed = 0, uses_anonymous_args = 0
  31              		@ link register save eliminated.
  32              	.LVL0:
  63:..\..\src/modbus.c ****     uint8_t i;
  64:..\..\src/modbus.c **** 
  65:..\..\src/modbus.c ****     crc ^= _data;
  33              		.loc 1 65 0
  34 0000 4840     		eors	r0, r1
  35              	.LVL1:
  66:..\..\src/modbus.c **** 
  67:..\..\src/modbus.c ****     for (i = 0; i < 8; i++)
  36              		.loc 1 67 0
  37 0002 0023     		movs	r3, #0
  38 0004 09E0     		b	.L2
  39              	.LVL2:
  40              	.L5:
  68:..\..\src/modbus.c ****     {
  69:..\..\src/modbus.c ****         if (crc & 1)
  41              		.loc 1 69 0
  42 0006 C207     		lsls	r2, r0, #31
  43 0008 04D5     		bpl	.L3
  70:..\..\src/modbus.c ****             crc = (crc >> 1) ^ CRC16_POLY;
  44              		.loc 1 70 0
ARM GAS  C:\Users\LUKEYO~1\AppData\Local\Temp\cc8QidXF.s 			page 3


  45 000a 4008     		lsrs	r0, r0, #1
  46              	.LVL3:
  47 000c 0449     		ldr	r1, .L6
  48 000e 4840     		eors	r0, r1
  49 0010 80B2     		uxth	r0, r0
  50              	.LVL4:
  51 0012 00E0     		b	.L4
  52              	.L3:
  71:..\..\src/modbus.c ****         else
  72:..\..\src/modbus.c ****             crc >>= 1;
  53              		.loc 1 72 0
  54 0014 4008     		lsrs	r0, r0, #1
  55              	.LVL5:
  56              	.L4:
  67:..\..\src/modbus.c ****     {
  57              		.loc 1 67 0 discriminator 2
  58 0016 0133     		adds	r3, r3, #1
  59              	.LVL6:
  60 0018 DBB2     		uxtb	r3, r3
  61              	.LVL7:
  62              	.L2:
  67:..\..\src/modbus.c ****     {
  63              		.loc 1 67 0 is_stmt 0 discriminator 1
  64 001a 072B     		cmp	r3, #7
  65 001c F3D9     		bls	.L5
  73:..\..\src/modbus.c ****     }
  74:..\..\src/modbus.c **** 
  75:..\..\src/modbus.c ****     return crc;
  76:..\..\src/modbus.c **** }
  66              		.loc 1 76 0 is_stmt 1
  67              		@ sp needed
  68 001e 7047     		bx	lr
  69              	.L7:
  70              		.align	2
  71              	.L6:
  72 0020 01A0FFFF 		.word	-24575
  73              		.cfi_endproc
  74              	.LFE32:
  75              		.size	crc16_update, .-crc16_update
  76              		.section	.text.crc16_bytes,"ax",%progbits
  77              		.align	2
  78              		.code	16
  79              		.thumb_func
  80              		.type	crc16_bytes, %function
  81              	crc16_bytes:
  82              	.LFB33:
  77:..\..\src/modbus.c **** 
  78:..\..\src/modbus.c **** static uint16_t crc16_bytes(uint8_t *_data, uint8_t bytes)
  79:..\..\src/modbus.c **** {
  83              		.loc 1 79 0
  84              		.cfi_startproc
  85              		@ args = 0, pretend = 0, frame = 0
  86              		@ frame_needed = 0, uses_anonymous_args = 0
  87              	.LVL8:
  88 0000 70B5     		push	{r4, r5, r6, lr}
  89              		.cfi_def_cfa_offset 16
  90              		.cfi_offset 4, -16
ARM GAS  C:\Users\LUKEYO~1\AppData\Local\Temp\cc8QidXF.s 			page 4


  91              		.cfi_offset 5, -12
  92              		.cfi_offset 6, -8
  93              		.cfi_offset 14, -4
  94 0002 0200     		movs	r2, r0
  95              	.LVL9:
  80:..\..\src/modbus.c ****     uint16_t crc = CRC16_INIT;
  96              		.loc 1 80 0
  97 0004 0648     		ldr	r0, .L11
  98              	.LVL10:
  81:..\..\src/modbus.c ****     while (bytes--)
  99              		.loc 1 81 0
 100 0006 05E0     		b	.L9
 101              	.LVL11:
 102              	.L10:
  82:..\..\src/modbus.c ****     {
  83:..\..\src/modbus.c ****         crc = crc16_update(crc, *(_data++));
 103              		.loc 1 83 0
 104 0008 551C     		adds	r5, r2, #1
 105              	.LVL12:
 106 000a 1178     		ldrb	r1, [r2]
 107 000c FFF7FEFF 		bl	crc16_update
 108              	.LVL13:
  81:..\..\src/modbus.c ****     while (bytes--)
 109              		.loc 1 81 0
 110 0010 2100     		movs	r1, r4
 111              		.loc 1 83 0
 112 0012 2A00     		movs	r2, r5
 113              	.LVL14:
 114              	.L9:
  81:..\..\src/modbus.c ****     while (bytes--)
 115              		.loc 1 81 0
 116 0014 4B1E     		subs	r3, r1, #1
 117 0016 DCB2     		uxtb	r4, r3
 118              	.LVL15:
 119 0018 0029     		cmp	r1, #0
 120 001a F5D1     		bne	.L10
  84:..\..\src/modbus.c ****     }
  85:..\..\src/modbus.c ****     return crc;
  86:..\..\src/modbus.c **** }
 121              		.loc 1 86 0
 122              		@ sp needed
 123              	.LVL16:
 124 001c 70BD     		pop	{r4, r5, r6, pc}
 125              	.L12:
 126 001e C046     		.align	2
 127              	.L11:
 128 0020 FFFF0000 		.word	65535
 129              		.cfi_endproc
 130              	.LFE33:
 131              		.size	crc16_bytes, .-crc16_bytes
 132              		.section	.text.compute_meta_length_after_function,"ax",%progbits
 133              		.align	2
 134              		.code	16
 135              		.thumb_func
 136              		.type	compute_meta_length_after_function, %function
 137              	compute_meta_length_after_function:
 138              	.LFB34:
ARM GAS  C:\Users\LUKEYO~1\AppData\Local\Temp\cc8QidXF.s 			page 5


  87:..\..\src/modbus.c **** 
  88:..\..\src/modbus.c **** #define HEADER_FUNCTION_LENGTH 2
  89:..\..\src/modbus.c **** #define CRC_LENGTH 2
  90:..\..\src/modbus.c **** /* 3 steps are used to parse the query */
  91:..\..\src/modbus.c **** typedef enum
  92:..\..\src/modbus.c **** {
  93:..\..\src/modbus.c ****     _STEP_FUNCTION,
  94:..\..\src/modbus.c ****     _STEP_META,
  95:..\..\src/modbus.c ****     _STEP_DATA,
  96:..\..\src/modbus.c **** } _step_t;
  97:..\..\src/modbus.c **** 
  98:..\..\src/modbus.c **** typedef enum
  99:..\..\src/modbus.c **** {
 100:..\..\src/modbus.c ****     MSG_INDICATION,
 101:..\..\src/modbus.c ****     MSG_CONFIRMATION,
 102:..\..\src/modbus.c **** } msg_type_t;
 103:..\..\src/modbus.c **** 
 104:..\..\src/modbus.c **** static uint8_t compute_meta_length_after_function(
 105:..\..\src/modbus.c ****     uint8_t function, msg_type_t msg_type)
 106:..\..\src/modbus.c **** {
 139              		.loc 1 106 0
 140              		.cfi_startproc
 141              		@ args = 0, pretend = 0, frame = 0
 142              		@ frame_needed = 0, uses_anonymous_args = 0
 143              		@ link register save eliminated.
 144              	.LVL17:
 107:..\..\src/modbus.c ****     uint8_t length;
 108:..\..\src/modbus.c **** 
 109:..\..\src/modbus.c ****     if (msg_type == MSG_INDICATION)
 145              		.loc 1 109 0
 146 0000 0029     		cmp	r1, #0
 147 0002 0CD1     		bne	.L14
 110:..\..\src/modbus.c ****     {
 111:..\..\src/modbus.c ****         if (function <= _FC_WRITE_SINGLE_REGISTER)
 148              		.loc 1 111 0
 149 0004 0628     		cmp	r0, #6
 150 0006 16D9     		bls	.L19
 112:..\..\src/modbus.c ****         {
 113:..\..\src/modbus.c ****             length = 4;
 114:..\..\src/modbus.c ****         }
 115:..\..\src/modbus.c ****         else if (function == _FC_WRITE_MULTIPLE_COILS ||
 151              		.loc 1 115 0
 152 0008 0300     		movs	r3, r0
 153 000a 0F3B     		subs	r3, r3, #15
 154 000c DBB2     		uxtb	r3, r3
 155 000e 012B     		cmp	r3, #1
 156 0010 13D9     		bls	.L20
 116:..\..\src/modbus.c ****                  function == _FC_WRITE_MULTIPLE_REGISTERS)
 117:..\..\src/modbus.c ****         {
 118:..\..\src/modbus.c ****             length = 5;
 119:..\..\src/modbus.c ****         }
 120:..\..\src/modbus.c ****         else if (function == _FC_MASK_WRITE_REGISTER)
 157              		.loc 1 120 0
 158 0012 1628     		cmp	r0, #22
 159 0014 13D0     		beq	.L21
 121:..\..\src/modbus.c ****         {
 122:..\..\src/modbus.c ****             length = 6;
ARM GAS  C:\Users\LUKEYO~1\AppData\Local\Temp\cc8QidXF.s 			page 6


 123:..\..\src/modbus.c ****         }
 124:..\..\src/modbus.c ****         else if (function == _FC_WRITE_AND_READ_REGISTERS)
 160              		.loc 1 124 0
 161 0016 1728     		cmp	r0, #23
 162 0018 13D1     		bne	.L22
 125:..\..\src/modbus.c ****         {
 126:..\..\src/modbus.c ****             length = 9;
 163              		.loc 1 126 0
 164 001a 0E38     		subs	r0, r0, #14
 165              	.LVL18:
 166 001c 14E0     		b	.L15
 167              	.LVL19:
 168              	.L14:
 127:..\..\src/modbus.c ****         }
 128:..\..\src/modbus.c ****         else
 129:..\..\src/modbus.c ****         {
 130:..\..\src/modbus.c ****             /* _FC_READ_EXCEPTION_STATUS, _FC_REPORT_SLAVE_ID */
 131:..\..\src/modbus.c ****             length = 0;
 132:..\..\src/modbus.c ****         }
 133:..\..\src/modbus.c **** #if MODBUS_PROCESS_CONFIRMATION
 134:..\..\src/modbus.c ****     }
 135:..\..\src/modbus.c ****     else
 136:..\..\src/modbus.c ****     {
 137:..\..\src/modbus.c ****         /* MSG_CONFIRMATION */
 138:..\..\src/modbus.c ****         switch (function)
 169              		.loc 1 138 0
 170 001e 0538     		subs	r0, r0, #5
 171              	.LVL20:
 172 0020 C3B2     		uxtb	r3, r0
 173 0022 112B     		cmp	r3, #17
 174 0024 05D8     		bhi	.L16
 175 0026 9800     		lsls	r0, r3, #2
 176 0028 084B     		ldr	r3, .L24
 177 002a 1B58     		ldr	r3, [r3, r0]
 178 002c 9F46     		mov	pc, r3
 179              		.section	.rodata
 180              		.align	2
 181              	.L18:
 182 0000 2E000000 		.word	.L17
 183 0004 2E000000 		.word	.L17
 184 0008 32000000 		.word	.L16
 185 000c 32000000 		.word	.L16
 186 0010 32000000 		.word	.L16
 187 0014 32000000 		.word	.L16
 188 0018 32000000 		.word	.L16
 189 001c 32000000 		.word	.L16
 190 0020 32000000 		.word	.L16
 191 0024 32000000 		.word	.L16
 192 0028 2E000000 		.word	.L17
 193 002c 2E000000 		.word	.L17
 194 0030 32000000 		.word	.L16
 195 0034 32000000 		.word	.L16
 196 0038 32000000 		.word	.L16
 197 003c 32000000 		.word	.L16
 198 0040 32000000 		.word	.L16
 199 0044 46000000 		.word	.L23
 200              		.section	.text.compute_meta_length_after_function
ARM GAS  C:\Users\LUKEYO~1\AppData\Local\Temp\cc8QidXF.s 			page 7


 201              	.L17:
 139:..\..\src/modbus.c ****         {
 140:..\..\src/modbus.c ****         case _FC_WRITE_SINGLE_COIL:
 141:..\..\src/modbus.c ****         case _FC_WRITE_SINGLE_REGISTER:
 142:..\..\src/modbus.c ****         case _FC_WRITE_MULTIPLE_COILS:
 143:..\..\src/modbus.c ****         case _FC_WRITE_MULTIPLE_REGISTERS:
 144:..\..\src/modbus.c ****             length = 4;
 202              		.loc 1 144 0
 203 002e 0420     		movs	r0, #4
 204 0030 0AE0     		b	.L15
 205              	.L16:
 206              	.LVL21:
 145:..\..\src/modbus.c ****             break;
 146:..\..\src/modbus.c ****         case _FC_MASK_WRITE_REGISTER:
 147:..\..\src/modbus.c ****             length = 6;
 148:..\..\src/modbus.c ****             break;
 149:..\..\src/modbus.c ****         default:
 150:..\..\src/modbus.c ****             length = 1;
 207              		.loc 1 150 0
 208 0032 0120     		movs	r0, #1
 209 0034 08E0     		b	.L15
 210              	.LVL22:
 211              	.L19:
 113:..\..\src/modbus.c ****         }
 212              		.loc 1 113 0
 213 0036 0420     		movs	r0, #4
 214              	.LVL23:
 215 0038 06E0     		b	.L15
 216              	.LVL24:
 217              	.L20:
 118:..\..\src/modbus.c ****         }
 218              		.loc 1 118 0
 219 003a 0520     		movs	r0, #5
 220              	.LVL25:
 221 003c 04E0     		b	.L15
 222              	.LVL26:
 223              	.L21:
 122:..\..\src/modbus.c ****         }
 224              		.loc 1 122 0
 225 003e 0620     		movs	r0, #6
 226              	.LVL27:
 227 0040 02E0     		b	.L15
 228              	.LVL28:
 229              	.L22:
 131:..\..\src/modbus.c ****         }
 230              		.loc 1 131 0
 231 0042 0020     		movs	r0, #0
 232              	.LVL29:
 233 0044 00E0     		b	.L15
 234              	.L23:
 147:..\..\src/modbus.c ****             break;
 235              		.loc 1 147 0
 236 0046 0620     		movs	r0, #6
 237              	.L15:
 238              	.LVL30:
 151:..\..\src/modbus.c ****         }
 152:..\..\src/modbus.c **** #endif
ARM GAS  C:\Users\LUKEYO~1\AppData\Local\Temp\cc8QidXF.s 			page 8


 153:..\..\src/modbus.c ****     }
 154:..\..\src/modbus.c **** 
 155:..\..\src/modbus.c ****     return length;
 156:..\..\src/modbus.c **** }
 239              		.loc 1 156 0
 240              		@ sp needed
 241 0048 7047     		bx	lr
 242              	.L25:
 243 004a C046     		.align	2
 244              	.L24:
 245 004c 00000000 		.word	.L18
 246              		.cfi_endproc
 247              	.LFE34:
 248              		.size	compute_meta_length_after_function, .-compute_meta_length_after_function
 249              		.section	.text.compute_data_length_after_meta,"ax",%progbits
 250              		.align	2
 251              		.code	16
 252              		.thumb_func
 253              		.type	compute_data_length_after_meta, %function
 254              	compute_data_length_after_meta:
 255              	.LFB35:
 157:..\..\src/modbus.c **** 
 158:..\..\src/modbus.c **** static uint8_t compute_data_length_after_meta(
 159:..\..\src/modbus.c ****     uint8_t *modbus_msg, msg_type_t msg_type)
 160:..\..\src/modbus.c **** {
 256              		.loc 1 160 0
 257              		.cfi_startproc
 258              		@ args = 0, pretend = 0, frame = 0
 259              		@ frame_needed = 0, uses_anonymous_args = 0
 260              		@ link register save eliminated.
 261              	.LVL31:
 161:..\..\src/modbus.c ****     uint8_t function = modbus_msg[1];
 262              		.loc 1 161 0
 263 0000 4378     		ldrb	r3, [r0, #1]
 264              	.LVL32:
 162:..\..\src/modbus.c ****     uint8_t length;
 163:..\..\src/modbus.c **** 
 164:..\..\src/modbus.c ****     if (msg_type == MSG_INDICATION)
 265              		.loc 1 164 0
 266 0002 0029     		cmp	r1, #0
 267 0004 0AD1     		bne	.L27
 165:..\..\src/modbus.c ****     {
 166:..\..\src/modbus.c ****         switch (function)
 268              		.loc 1 166 0
 269 0006 0F2B     		cmp	r3, #15
 270 0008 10D3     		bcc	.L32
 271 000a 102B     		cmp	r3, #16
 272 000c 02D9     		bls	.L29
 273 000e 172B     		cmp	r3, #23
 274 0010 02D0     		beq	.L30
 275 0012 0BE0     		b	.L32
 276              	.L29:
 167:..\..\src/modbus.c ****         {
 168:..\..\src/modbus.c ****         case _FC_WRITE_MULTIPLE_COILS:
 169:..\..\src/modbus.c ****         case _FC_WRITE_MULTIPLE_REGISTERS:
 170:..\..\src/modbus.c ****             length = modbus_msg[6];
 277              		.loc 1 170 0
ARM GAS  C:\Users\LUKEYO~1\AppData\Local\Temp\cc8QidXF.s 			page 9


 278 0014 8079     		ldrb	r0, [r0, #6]
 279              	.LVL33:
 171:..\..\src/modbus.c ****             break;
 280              		.loc 1 171 0
 281 0016 0CE0     		b	.L28
 282              	.LVL34:
 283              	.L30:
 172:..\..\src/modbus.c ****         case _FC_WRITE_AND_READ_REGISTERS:
 173:..\..\src/modbus.c ****             length = modbus_msg[10];
 284              		.loc 1 173 0
 285 0018 807A     		ldrb	r0, [r0, #10]
 286              	.LVL35:
 174:..\..\src/modbus.c ****             break;
 287              		.loc 1 174 0
 288 001a 0AE0     		b	.L28
 289              	.LVL36:
 290              	.L27:
 175:..\..\src/modbus.c ****         default:
 176:..\..\src/modbus.c ****             length = 0;
 177:..\..\src/modbus.c ****         }
 178:..\..\src/modbus.c **** #if MODBUS_PROCESS_CONFIRMATION
 179:..\..\src/modbus.c ****     }
 180:..\..\src/modbus.c ****     else
 181:..\..\src/modbus.c ****     {
 182:..\..\src/modbus.c ****         /* MSG_CONFIRMATION */
 183:..\..\src/modbus.c ****         if (function <= _FC_READ_INPUT_REGISTERS ||
 291              		.loc 1 183 0
 292 001c 042B     		cmp	r3, #4
 293 001e 03D9     		bls	.L31
 294              		.loc 1 183 0 is_stmt 0 discriminator 1
 295 0020 112B     		cmp	r3, #17
 296 0022 01D0     		beq	.L31
 184:..\..\src/modbus.c ****             function == _FC_REPORT_SLAVE_ID ||
 297              		.loc 1 184 0 is_stmt 1
 298 0024 172B     		cmp	r3, #23
 299 0026 03D1     		bne	.L33
 300              	.L31:
 185:..\..\src/modbus.c ****             function == _FC_WRITE_AND_READ_REGISTERS)
 186:..\..\src/modbus.c ****         {
 187:..\..\src/modbus.c ****             length = modbus_msg[2];
 301              		.loc 1 187 0
 302 0028 8078     		ldrb	r0, [r0, #2]
 303              	.LVL37:
 304 002a 02E0     		b	.L28
 305              	.LVL38:
 306              	.L32:
 176:..\..\src/modbus.c ****         }
 307              		.loc 1 176 0
 308 002c 0020     		movs	r0, #0
 309              	.LVL39:
 310 002e 00E0     		b	.L28
 311              	.LVL40:
 312              	.L33:
 188:..\..\src/modbus.c ****         }
 189:..\..\src/modbus.c ****         else
 190:..\..\src/modbus.c ****         {
 191:..\..\src/modbus.c ****             length = 0;
ARM GAS  C:\Users\LUKEYO~1\AppData\Local\Temp\cc8QidXF.s 			page 10


 313              		.loc 1 191 0
 314 0030 0020     		movs	r0, #0
 315              	.LVL41:
 316              	.L28:
 192:..\..\src/modbus.c ****         }
 193:..\..\src/modbus.c **** #endif
 194:..\..\src/modbus.c ****     }
 195:..\..\src/modbus.c **** 
 196:..\..\src/modbus.c ****     length += CRC_LENGTH;
 317              		.loc 1 196 0
 318 0032 0230     		adds	r0, r0, #2
 319              	.LVL42:
 320 0034 C0B2     		uxtb	r0, r0
 321              	.LVL43:
 197:..\..\src/modbus.c **** 
 198:..\..\src/modbus.c ****     return length;
 199:..\..\src/modbus.c **** }
 322              		.loc 1 199 0
 323              		@ sp needed
 324 0036 7047     		bx	lr
 325              		.cfi_endproc
 326              	.LFE35:
 327              		.size	compute_data_length_after_meta, .-compute_data_length_after_meta
 328              		.section	.text.mb_buf_to_val,"ax",%progbits
 329              		.align	2
 330              		.code	16
 331              		.thumb_func
 332              		.type	mb_buf_to_val, %function
 333              	mb_buf_to_val:
 334              	.LFB47:
 200:..\..\src/modbus.c **** 
 201:..\..\src/modbus.c **** static void modbus_reply(int8_t bytes)
 202:..\..\src/modbus.c **** {
 203:..\..\src/modbus.c ****     uint8_t function;
 204:..\..\src/modbus.c ****     uint16_t crc;
 205:..\..\src/modbus.c **** 
 206:..\..\src/modbus.c ****     if (_tx_led_enable)
 207:..\..\src/modbus.c ****         _tx_led_enable(_tx_led_enable_val);
 208:..\..\src/modbus.c ****     function = modbus_msg[MODBUS_FUNCTION_OFFSET];
 209:..\..\src/modbus.c **** 
 210:..\..\src/modbus.c ****     bytes -= HEADER_FUNCTION_LENGTH;
 211:..\..\src/modbus.c ****     if ((bytes = _modbus_process(function,
 212:..\..\src/modbus.c ****                                  modbus_msg + HEADER_FUNCTION_LENGTH)) < 0)
 213:..\..\src/modbus.c ****     {
 214:..\..\src/modbus.c ****         function |= MODBUS_EXCEPTION;
 215:..\..\src/modbus.c ****         modbus_msg[HEADER_FUNCTION_LENGTH] = MODBUS_EXCEPTION_ILLEGAL_FUNCTION;
 216:..\..\src/modbus.c ****         bytes = 1;
 217:..\..\src/modbus.c ****     }
 218:..\..\src/modbus.c ****     bytes += HEADER_FUNCTION_LENGTH;
 219:..\..\src/modbus.c **** 
 220:..\..\src/modbus.c ****     modbus_msg[MODBUS_FUNCTION_OFFSET] = function;
 221:..\..\src/modbus.c ****     crc = crc16_bytes(modbus_msg, bytes);
 222:..\..\src/modbus.c ****     modbus_msg[bytes++] = CRC_0(crc);
 223:..\..\src/modbus.c ****     modbus_msg[bytes++] = CRC_1(crc);
 224:..\..\src/modbus.c ****     _modbus_write(modbus_msg, bytes);
 225:..\..\src/modbus.c ****     if (_tx_led_enable)
 226:..\..\src/modbus.c ****         _tx_led_enable(!_tx_led_enable_val);
ARM GAS  C:\Users\LUKEYO~1\AppData\Local\Temp\cc8QidXF.s 			page 11


 227:..\..\src/modbus.c **** }
 228:..\..\src/modbus.c **** 
 229:..\..\src/modbus.c **** // Might be able to get rid of this function
 230:..\..\src/modbus.c **** void modbus_timer_reset(void)
 231:..\..\src/modbus.c **** {
 232:..\..\src/modbus.c ****     _modbus_timer_reset();
 233:..\..\src/modbus.c **** }
 234:..\..\src/modbus.c **** 
 235:..\..\src/modbus.c **** uint8_t modbus_poll(void)
 236:..\..\src/modbus.c **** {
 237:..\..\src/modbus.c ****     static uint8_t length_to_read = HEADER_FUNCTION_LENGTH;
 238:..\..\src/modbus.c ****     static uint8_t msg_length = 0;
 239:..\..\src/modbus.c ****     static _step_t step = _STEP_FUNCTION;
 240:..\..\src/modbus.c ****     static msg_type_t msg_type = MSG_INDICATION;
 241:..\..\src/modbus.c ****     uint8_t retval = 0;
 242:..\..\src/modbus.c ****     uint16_t crc;
 243:..\..\src/modbus.c **** 
 244:..\..\src/modbus.c ****     if (_modbus_timer_finished)
 245:..\..\src/modbus.c ****         goto reset;
 246:..\..\src/modbus.c **** 
 247:..\..\src/modbus.c ****     if (!_modbus_read_ready())
 248:..\..\src/modbus.c ****         return 0;
 249:..\..\src/modbus.c **** 
 250:..\..\src/modbus.c **** loop:
 251:..\..\src/modbus.c **** 
 252:..\..\src/modbus.c ****     modbus_msg[msg_length++] = _modbus_read();
 253:..\..\src/modbus.c ****     length_to_read--;
 254:..\..\src/modbus.c **** 
 255:..\..\src/modbus.c ****     if (msg_length == 1)
 256:..\..\src/modbus.c ****     {
 257:..\..\src/modbus.c ****         _modbus_timer_start();
 258:..\..\src/modbus.c ****         if (modbus_msg[MODBUS_SLAVE_OFFSET] == _slave_addr)
 259:..\..\src/modbus.c ****             msg_type = MSG_INDICATION;
 260:..\..\src/modbus.c ****         if (_rx_led_enable)
 261:..\..\src/modbus.c ****             _rx_led_enable(_rx_led_enable_val);
 262:..\..\src/modbus.c ****     }
 263:..\..\src/modbus.c **** 
 264:..\..\src/modbus.c ****     if (!length_to_read)
 265:..\..\src/modbus.c ****     {
 266:..\..\src/modbus.c ****         switch (step)
 267:..\..\src/modbus.c ****         {
 268:..\..\src/modbus.c ****         case _STEP_FUNCTION:
 269:..\..\src/modbus.c ****             /* Function code position */
 270:..\..\src/modbus.c ****             length_to_read = compute_meta_length_after_function(
 271:..\..\src/modbus.c ****                 modbus_msg[1], msg_type);
 272:..\..\src/modbus.c ****             if (length_to_read != 0)
 273:..\..\src/modbus.c ****             {
 274:..\..\src/modbus.c ****                 step = _STEP_META;
 275:..\..\src/modbus.c ****                 break;
 276:..\..\src/modbus.c ****             } /* else switches straight to the next step */
 277:..\..\src/modbus.c ****         case _STEP_META:
 278:..\..\src/modbus.c ****             length_to_read = compute_data_length_after_meta(modbus_msg,
 279:..\..\src/modbus.c ****                                                             msg_type);
 280:..\..\src/modbus.c ****             if ((msg_length + length_to_read) > MODBUS_MAX_PACKET_LENGTH)
 281:..\..\src/modbus.c ****                 goto reset;
 282:..\..\src/modbus.c ****             step = _STEP_DATA;
 283:..\..\src/modbus.c ****             break;
ARM GAS  C:\Users\LUKEYO~1\AppData\Local\Temp\cc8QidXF.s 			page 12


 284:..\..\src/modbus.c ****         default:
 285:..\..\src/modbus.c ****             break;
 286:..\..\src/modbus.c ****         }
 287:..\..\src/modbus.c ****     }
 288:..\..\src/modbus.c **** 
 289:..\..\src/modbus.c ****     if (!length_to_read)
 290:..\..\src/modbus.c ****     {
 291:..\..\src/modbus.c ****         /* All data collected by here */
 292:..\..\src/modbus.c ****         crc = crc16_bytes(modbus_msg, msg_length);
 293:..\..\src/modbus.c ****         if (!crc)
 294:..\..\src/modbus.c ****             retval = msg_length - CRC_LENGTH;
 295:..\..\src/modbus.c ****         else
 296:..\..\src/modbus.c ****             goto reset;
 297:..\..\src/modbus.c **** 
 298:..\..\src/modbus.c ****         /* If the slave address does not match this device, expect and ignore a
 299:..\..\src/modbus.c ****          * confirmation message from another device on the network. */
 300:..\..\src/modbus.c ****         if (msg_type == MSG_CONFIRMATION)
 301:..\..\src/modbus.c ****             goto reset;
 302:..\..\src/modbus.c **** 
 303:..\..\src/modbus.c ****         if (modbus_msg[MODBUS_SLAVE_OFFSET] != _slave_addr)
 304:..\..\src/modbus.c ****         {
 305:..\..\src/modbus.c ****             if (_forwarding)
 306:..\..\src/modbus.c ****             {
 307:..\..\src/modbus.c ****                 /* Forward this packet on to the next interface */
 308:..\..\src/modbus.c ****                 _modbus_forward(modbus_msg, msg_length);
 309:..\..\src/modbus.c ****                 goto reset;
 310:..\..\src/modbus.c ****             }
 311:..\..\src/modbus.c **** 
 312:..\..\src/modbus.c ****             /* Leave the timer running so that a reset will occur if no
 313:..\..\src/modbus.c ****              * device ever responds */
 314:..\..\src/modbus.c ****             msg_type = MSG_CONFIRMATION;
 315:..\..\src/modbus.c ****             goto reset_with_timeout;
 316:..\..\src/modbus.c ****         }
 317:..\..\src/modbus.c **** 
 318:..\..\src/modbus.c ****         modbus_reply(retval);
 319:..\..\src/modbus.c **** 
 320:..\..\src/modbus.c ****     reset:
 321:..\..\src/modbus.c ****         _modbus_timer_stop_and_reset();
 322:..\..\src/modbus.c ****         msg_type = MSG_INDICATION;
 323:..\..\src/modbus.c ****     reset_with_timeout:
 324:..\..\src/modbus.c ****         msg_length = 0;
 325:..\..\src/modbus.c ****         length_to_read = HEADER_FUNCTION_LENGTH;
 326:..\..\src/modbus.c ****         step = _STEP_FUNCTION;
 327:..\..\src/modbus.c ****         if (_rx_led_enable)
 328:..\..\src/modbus.c ****             _rx_led_enable(!_rx_led_enable_val);
 329:..\..\src/modbus.c ****     }
 330:..\..\src/modbus.c **** 
 331:..\..\src/modbus.c ****     if (_modbus_read_ready())
 332:..\..\src/modbus.c ****         goto loop;
 333:..\..\src/modbus.c **** 
 334:..\..\src/modbus.c ****     return msg_length;
 335:..\..\src/modbus.c **** }
 336:..\..\src/modbus.c **** 
 337:..\..\src/modbus.c **** #if MODBUS_USE_FUNCTION_POINTERS
 338:..\..\src/modbus.c **** void modbus_init(
 339:..\..\src/modbus.c ****     uint8_t slave_addr,
 340:..\..\src/modbus.c ****     modbus_write_t modbus_write,
ARM GAS  C:\Users\LUKEYO~1\AppData\Local\Temp\cc8QidXF.s 			page 13


 341:..\..\src/modbus.c ****     modbus_read_ready_t modbus_read_ready,
 342:..\..\src/modbus.c ****     modbus_read_t modbus_read,
 343:..\..\src/modbus.c ****     modbus_process_t modbus_process)
 344:..\..\src/modbus.c **** {
 345:..\..\src/modbus.c ****     _modbus_write = modbus_write;
 346:..\..\src/modbus.c ****     _modbus_read_ready = modbus_read_ready;
 347:..\..\src/modbus.c ****     _modbus_read = modbus_read;
 348:..\..\src/modbus.c ****     _modbus_process = modbus_process;
 349:..\..\src/modbus.c **** #else
 350:..\..\src/modbus.c **** void modbus_init(uint8_t slave_addr)
 351:..\..\src/modbus.c **** {
 352:..\..\src/modbus.c **** #endif
 353:..\..\src/modbus.c ****     _slave_addr = slave_addr;
 354:..\..\src/modbus.c ****     _modbus_timer_init();
 355:..\..\src/modbus.c ****     _modbus_UART_init();
 356:..\..\src/modbus.c **** }
 357:..\..\src/modbus.c **** 
 358:..\..\src/modbus.c **** void modbus_enable_forwarding(uint8_t val)
 359:..\..\src/modbus.c **** {
 360:..\..\src/modbus.c ****     _forwarding = val;
 361:..\..\src/modbus.c **** }
 362:..\..\src/modbus.c **** 
 363:..\..\src/modbus.c **** void modbus_tx_led(void (*led_enable)(uint8_t val), uint8_t val)
 364:..\..\src/modbus.c **** {
 365:..\..\src/modbus.c ****     _tx_led_enable = led_enable;
 366:..\..\src/modbus.c ****     _tx_led_enable_val = val;
 367:..\..\src/modbus.c **** }
 368:..\..\src/modbus.c **** 
 369:..\..\src/modbus.c **** void modbus_rx_led(void (*led_enable)(uint8_t val), uint8_t val)
 370:..\..\src/modbus.c **** {
 371:..\..\src/modbus.c ****     _rx_led_enable = led_enable;
 372:..\..\src/modbus.c ****     _rx_led_enable_val = val;
 373:..\..\src/modbus.c **** }
 374:..\..\src/modbus.c **** 
 375:..\..\src/modbus.c **** /* Helper functions */
 376:..\..\src/modbus.c **** int8_t modbus_slave_id_response(uint8_t *msg)
 377:..\..\src/modbus.c **** {
 378:..\..\src/modbus.c ****     msg[0] = sizeof(MODBUS_SLAVE_STRING) + 2;
 379:..\..\src/modbus.c ****     msg[1] = _slave_addr;
 380:..\..\src/modbus.c ****     msg[2] = 0xff; /* Run indicator status */
 381:..\..\src/modbus.c ****     memcpy(&msg[3], MODBUS_SLAVE_STRING, sizeof(MODBUS_SLAVE_STRING));
 382:..\..\src/modbus.c ****     return sizeof(MODBUS_SLAVE_STRING) + 3;
 383:..\..\src/modbus.c **** }
 384:..\..\src/modbus.c **** 
 385:..\..\src/modbus.c **** /* Iterators */
 386:..\..\src/modbus.c **** uint16_t mb_address;
 387:..\..\src/modbus.c **** uint8_t mb_nr_regs;
 388:..\..\src/modbus.c **** uint8_t mb_resp_bytes;
 389:..\..\src/modbus.c **** static uint8_t _mb_data_offset;
 390:..\..\src/modbus.c **** 
 391:..\..\src/modbus.c **** void mb_data_init(uint8_t *msg, uint8_t fn)
 392:..\..\src/modbus.c **** {
 393:..\..\src/modbus.c ****     mb_address = mb_buf_to_val(&msg[MODBUS_MSG_ADDR_OFFSET]);
 394:..\..\src/modbus.c ****     mb_nr_regs = mb_buf_to_val(&msg[MODBUS_MSG_NR_REGS_OFFSET]);
 395:..\..\src/modbus.c ****     switch (fn)
 396:..\..\src/modbus.c ****     {
 397:..\..\src/modbus.c ****     case _FC_READ_HOLDING_REGISTERS:
ARM GAS  C:\Users\LUKEYO~1\AppData\Local\Temp\cc8QidXF.s 			page 14


 398:..\..\src/modbus.c ****         _mb_data_offset = 1;
 399:..\..\src/modbus.c ****         mb_resp_bytes = 1 + mb_nr_regs * 2;
 400:..\..\src/modbus.c ****         msg[MODBUS_MSG_LEN_OFFSET] = mb_resp_bytes - 1;
 401:..\..\src/modbus.c ****         return;
 402:..\..\src/modbus.c ****     case _FC_WRITE_SINGLE_REGISTER:
 403:..\..\src/modbus.c ****         _mb_data_offset = 2;
 404:..\..\src/modbus.c ****         mb_nr_regs = 1;
 405:..\..\src/modbus.c ****         return;
 406:..\..\src/modbus.c ****     case _FC_WRITE_MULTIPLE_REGISTERS:
 407:..\..\src/modbus.c ****         _mb_data_offset = 5;
 408:..\..\src/modbus.c ****         return;
 409:..\..\src/modbus.c ****     }
 410:..\..\src/modbus.c **** }
 411:..\..\src/modbus.c **** 
 412:..\..\src/modbus.c **** void mb_data_resp(uint8_t *msg, uint16_t val)
 413:..\..\src/modbus.c **** {
 414:..\..\src/modbus.c ****     _mb_data_offset += mb_val_to_buf(&msg[_mb_data_offset], val);
 415:..\..\src/modbus.c ****     mb_nr_regs--;
 416:..\..\src/modbus.c ****     mb_address++;
 417:..\..\src/modbus.c **** }
 418:..\..\src/modbus.c **** 
 419:..\..\src/modbus.c **** uint16_t mb_data_next(uint8_t *msg)
 420:..\..\src/modbus.c **** {
 421:..\..\src/modbus.c ****     uint16_t retval = mb_buf_to_val(&msg[_mb_data_offset]);
 422:..\..\src/modbus.c ****     mb_nr_regs--;
 423:..\..\src/modbus.c ****     mb_address++;
 424:..\..\src/modbus.c ****     _mb_data_offset += 2;
 425:..\..\src/modbus.c ****     return retval;
 426:..\..\src/modbus.c **** }
 427:..\..\src/modbus.c **** 
 428:..\..\src/modbus.c **** static uint16_t mb_buf_to_val(uint8_t *buf)
 429:..\..\src/modbus.c **** {
 335              		.loc 1 429 0
 336              		.cfi_startproc
 337              		@ args = 0, pretend = 0, frame = 0
 338              		@ frame_needed = 0, uses_anonymous_args = 0
 339              		@ link register save eliminated.
 340              	.LVL44:
 430:..\..\src/modbus.c ****     return (uint16_t)buf[0] << 8 | buf[1];
 341              		.loc 1 430 0
 342 0000 0278     		ldrb	r2, [r0]
 343 0002 1202     		lsls	r2, r2, #8
 344 0004 4378     		ldrb	r3, [r0, #1]
 345 0006 1A43     		orrs	r2, r3
 346 0008 1000     		movs	r0, r2
 347              	.LVL45:
 431:..\..\src/modbus.c **** }
 348              		.loc 1 431 0
 349              		@ sp needed
 350 000a 7047     		bx	lr
 351              		.cfi_endproc
 352              	.LFE47:
 353              		.size	mb_buf_to_val, .-mb_buf_to_val
 354              		.section	.text.mb_val_to_buf,"ax",%progbits
 355              		.align	2
 356              		.code	16
 357              		.thumb_func
ARM GAS  C:\Users\LUKEYO~1\AppData\Local\Temp\cc8QidXF.s 			page 15


 358              		.type	mb_val_to_buf, %function
 359              	mb_val_to_buf:
 360              	.LFB48:
 432:..\..\src/modbus.c **** 
 433:..\..\src/modbus.c **** static uint8_t mb_val_to_buf(uint8_t *buf, uint16_t val)
 434:..\..\src/modbus.c **** {
 361              		.loc 1 434 0
 362              		.cfi_startproc
 363              		@ args = 0, pretend = 0, frame = 0
 364              		@ frame_needed = 0, uses_anonymous_args = 0
 365              		@ link register save eliminated.
 366              	.LVL46:
 435:..\..\src/modbus.c ****     buf[0] = val >> 8;
 367              		.loc 1 435 0
 368 0000 0B0A     		lsrs	r3, r1, #8
 369 0002 0370     		strb	r3, [r0]
 436:..\..\src/modbus.c ****     buf[1] = val;
 370              		.loc 1 436 0
 371 0004 4170     		strb	r1, [r0, #1]
 437:..\..\src/modbus.c ****     return 2;
 438:..\..\src/modbus.c **** }
 372              		.loc 1 438 0
 373 0006 0220     		movs	r0, #2
 374              	.LVL47:
 375              		@ sp needed
 376 0008 7047     		bx	lr
 377              		.cfi_endproc
 378              	.LFE48:
 379              		.size	mb_val_to_buf, .-mb_val_to_buf
 380 000a C046     		.section	.text.modbus_reply,"ax",%progbits
 381              		.align	2
 382              		.code	16
 383              		.thumb_func
 384              		.type	modbus_reply, %function
 385              	modbus_reply:
 386              	.LFB36:
 202:..\..\src/modbus.c ****     uint8_t function;
 387              		.loc 1 202 0
 388              		.cfi_startproc
 389              		@ args = 0, pretend = 0, frame = 0
 390              		@ frame_needed = 0, uses_anonymous_args = 0
 391              	.LVL48:
 392 0000 F8B5     		push	{r3, r4, r5, r6, r7, lr}
 393              		.cfi_def_cfa_offset 24
 394              		.cfi_offset 3, -24
 395              		.cfi_offset 4, -20
 396              		.cfi_offset 5, -16
 397              		.cfi_offset 6, -12
 398              		.cfi_offset 7, -8
 399              		.cfi_offset 14, -4
 206:..\..\src/modbus.c ****         _tx_led_enable(_tx_led_enable_val);
 400              		.loc 1 206 0
 401 0002 1C4B     		ldr	r3, .L40
 402 0004 1B68     		ldr	r3, [r3]
 403 0006 002B     		cmp	r3, #0
 404 0008 02D0     		beq	.L37
 207:..\..\src/modbus.c ****     function = modbus_msg[MODBUS_FUNCTION_OFFSET];
ARM GAS  C:\Users\LUKEYO~1\AppData\Local\Temp\cc8QidXF.s 			page 16


 405              		.loc 1 207 0
 406 000a 1A4A     		ldr	r2, .L40
 407 000c 1079     		ldrb	r0, [r2, #4]
 408              	.LVL49:
 409 000e 9847     		blx	r3
 410              	.LVL50:
 411              	.L37:
 208:..\..\src/modbus.c **** 
 412              		.loc 1 208 0
 413 0010 1849     		ldr	r1, .L40
 414 0012 4D7A     		ldrb	r5, [r1, #9]
 415              	.LVL51:
 211:..\..\src/modbus.c ****                                  modbus_msg + HEADER_FUNCTION_LENGTH)) < 0)
 416              		.loc 1 211 0
 417 0014 0A31     		adds	r1, r1, #10
 418 0016 2800     		movs	r0, r5
 419 0018 FFF7FEFF 		bl	modbus_respond
 420              	.LVL52:
 421 001c 0028     		cmp	r0, #0
 422 001e 07DA     		bge	.L38
 214:..\..\src/modbus.c ****         modbus_msg[HEADER_FUNCTION_LENGTH] = MODBUS_EXCEPTION_ILLEGAL_FUNCTION;
 423              		.loc 1 214 0
 424 0020 8023     		movs	r3, #128
 425 0022 5B42     		rsbs	r3, r3, #0
 426 0024 1D43     		orrs	r5, r3
 427              	.LVL53:
 428 0026 EDB2     		uxtb	r5, r5
 429              	.LVL54:
 215:..\..\src/modbus.c ****         bytes = 1;
 430              		.loc 1 215 0
 431 0028 0122     		movs	r2, #1
 432 002a 124B     		ldr	r3, .L40
 433 002c 9A72     		strb	r2, [r3, #10]
 434              	.LVL55:
 216:..\..\src/modbus.c ****     }
 435              		.loc 1 216 0
 436 002e 0120     		movs	r0, #1
 437              	.LVL56:
 438              	.L38:
 218:..\..\src/modbus.c **** 
 439              		.loc 1 218 0
 440 0030 C4B2     		uxtb	r4, r0
 441 0032 A11C     		adds	r1, r4, #2
 442 0034 C9B2     		uxtb	r1, r1
 443 0036 4FB2     		sxtb	r7, r1
 444              	.LVL57:
 220:..\..\src/modbus.c ****     crc = crc16_bytes(modbus_msg, bytes);
 445              		.loc 1 220 0
 446 0038 0E4E     		ldr	r6, .L40
 447 003a 7572     		strb	r5, [r6, #9]
 221:..\..\src/modbus.c ****     modbus_msg[bytes++] = CRC_0(crc);
 448              		.loc 1 221 0
 449 003c 3500     		movs	r5, r6
 450              	.LVL58:
 451 003e 0835     		adds	r5, r5, #8
 452 0040 2800     		movs	r0, r5
 453 0042 FFF7FEFF 		bl	crc16_bytes
ARM GAS  C:\Users\LUKEYO~1\AppData\Local\Temp\cc8QidXF.s 			page 17


 454              	.LVL59:
 222:..\..\src/modbus.c ****     modbus_msg[bytes++] = CRC_1(crc);
 455              		.loc 1 222 0
 456 0046 E31C     		adds	r3, r4, #3
 457 0048 5BB2     		sxtb	r3, r3
 458              	.LVL60:
 459 004a F719     		adds	r7, r6, r7
 460 004c 3872     		strb	r0, [r7, #8]
 223:..\..\src/modbus.c ****     _modbus_write(modbus_msg, bytes);
 461              		.loc 1 223 0
 462 004e 211D     		adds	r1, r4, #4
 463 0050 C9B2     		uxtb	r1, r1
 464              	.LVL61:
 465 0052 F318     		adds	r3, r6, r3
 466 0054 000A     		lsrs	r0, r0, #8
 467              	.LVL62:
 468 0056 1872     		strb	r0, [r3, #8]
 224:..\..\src/modbus.c ****     if (_tx_led_enable)
 469              		.loc 1 224 0
 470 0058 2800     		movs	r0, r5
 471 005a FFF7FEFF 		bl	modbus_write_data
 472              	.LVL63:
 225:..\..\src/modbus.c ****         _tx_led_enable(!_tx_led_enable_val);
 473              		.loc 1 225 0
 474 005e 3368     		ldr	r3, [r6]
 475 0060 002B     		cmp	r3, #0
 476 0062 05D0     		beq	.L36
 226:..\..\src/modbus.c **** }
 477              		.loc 1 226 0
 478 0064 034A     		ldr	r2, .L40
 479 0066 1079     		ldrb	r0, [r2, #4]
 480 0068 4242     		rsbs	r2, r0, #0
 481 006a 5041     		adcs	r0, r0, r2
 482 006c C0B2     		uxtb	r0, r0
 483 006e 9847     		blx	r3
 484              	.LVL64:
 485              	.L36:
 227:..\..\src/modbus.c **** 
 486              		.loc 1 227 0
 487              		@ sp needed
 488              	.LVL65:
 489 0070 F8BD     		pop	{r3, r4, r5, r6, r7, pc}
 490              	.L41:
 491 0072 C046     		.align	2
 492              	.L40:
 493 0074 00000000 		.word	.LANCHOR0
 494              		.cfi_endproc
 495              	.LFE36:
 496              		.size	modbus_reply, .-modbus_reply
 497              		.section	.text.modbus_timer_reset,"ax",%progbits
 498              		.align	2
 499              		.global	modbus_timer_reset
 500              		.code	16
 501              		.thumb_func
 502              		.type	modbus_timer_reset, %function
 503              	modbus_timer_reset:
 504              	.LFB37:
ARM GAS  C:\Users\LUKEYO~1\AppData\Local\Temp\cc8QidXF.s 			page 18


 231:..\..\src/modbus.c ****     _modbus_timer_reset();
 505              		.loc 1 231 0
 506              		.cfi_startproc
 507              		@ args = 0, pretend = 0, frame = 0
 508              		@ frame_needed = 0, uses_anonymous_args = 0
 509 0000 10B5     		push	{r4, lr}
 510              		.cfi_def_cfa_offset 8
 511              		.cfi_offset 4, -8
 512              		.cfi_offset 14, -4
 232:..\..\src/modbus.c **** }
 513              		.loc 1 232 0
 514 0002 FFF7FEFF 		bl	_modbus_timer_reset
 515              	.LVL66:
 233:..\..\src/modbus.c **** 
 516              		.loc 1 233 0
 517              		@ sp needed
 518 0006 10BD     		pop	{r4, pc}
 519              		.cfi_endproc
 520              	.LFE37:
 521              		.size	modbus_timer_reset, .-modbus_timer_reset
 522              		.section	.text.modbus_poll,"ax",%progbits
 523              		.align	2
 524              		.global	modbus_poll
 525              		.code	16
 526              		.thumb_func
 527              		.type	modbus_poll, %function
 528              	modbus_poll:
 529              	.LFB38:
 236:..\..\src/modbus.c ****     static uint8_t length_to_read = HEADER_FUNCTION_LENGTH;
 530              		.loc 1 236 0
 531              		.cfi_startproc
 532              		@ args = 0, pretend = 0, frame = 0
 533              		@ frame_needed = 0, uses_anonymous_args = 0
 534 0000 70B5     		push	{r4, r5, r6, lr}
 535              		.cfi_def_cfa_offset 16
 536              		.cfi_offset 4, -16
 537              		.cfi_offset 5, -12
 538              		.cfi_offset 6, -8
 539              		.cfi_offset 14, -4
 540              	.LVL67:
 244:..\..\src/modbus.c ****         goto reset;
 541              		.loc 1 244 0
 542 0002 4823     		movs	r3, #72
 543 0004 544A     		ldr	r2, .L56
 544 0006 D35C     		ldrb	r3, [r2, r3]
 545 0008 002B     		cmp	r3, #0
 546 000a 00D0     		beq	.LCB484
 547 000c 81E0     		b	.L44	@long jump
 548              	.LCB484:
 247:..\..\src/modbus.c ****         return 0;
 549              		.loc 1 247 0
 550 000e FFF7FEFF 		bl	modbus_read_ready
 551              	.LVL68:
 552 0012 0028     		cmp	r0, #0
 553 0014 00D1     		bne	.LCB488
 554 0016 9DE0     		b	.L45	@long jump
 555              	.LCB488:
ARM GAS  C:\Users\LUKEYO~1\AppData\Local\Temp\cc8QidXF.s 			page 19


 556              	.LVL69:
 557              	.L46:
 252:..\..\src/modbus.c ****     length_to_read--;
 558              		.loc 1 252 0
 559 0018 4F4C     		ldr	r4, .L56
 560 001a 4926     		movs	r6, #73
 561 001c A55D     		ldrb	r5, [r4, r6]
 562 001e 6B1C     		adds	r3, r5, #1
 563 0020 A355     		strb	r3, [r4, r6]
 564 0022 FFF7FEFF 		bl	modbus_get_byte
 565              	.LVL70:
 566 0026 6519     		adds	r5, r4, r5
 567 0028 2872     		strb	r0, [r5, #8]
 253:..\..\src/modbus.c **** 
 568              		.loc 1 253 0
 569 002a 4C4A     		ldr	r2, .L56+4
 570 002c 1378     		ldrb	r3, [r2]
 571 002e 013B     		subs	r3, r3, #1
 572 0030 1370     		strb	r3, [r2]
 255:..\..\src/modbus.c ****     {
 573              		.loc 1 255 0
 574 0032 A35D     		ldrb	r3, [r4, r6]
 575 0034 012B     		cmp	r3, #1
 576 0036 13D1     		bne	.L47
 257:..\..\src/modbus.c ****         if (modbus_msg[MODBUS_SLAVE_OFFSET] == _slave_addr)
 577              		.loc 1 257 0
 578 0038 FFF7FEFF 		bl	_modbus_timer_start
 579              	.LVL71:
 258:..\..\src/modbus.c ****             msg_type = MSG_INDICATION;
 580              		.loc 1 258 0
 581 003c 464B     		ldr	r3, .L56
 582 003e 1A7A     		ldrb	r2, [r3, #8]
 583 0040 4A21     		movs	r1, #74
 584 0042 5B5C     		ldrb	r3, [r3, r1]
 585 0044 9A42     		cmp	r2, r3
 586 0046 03D1     		bne	.L48
 259:..\..\src/modbus.c ****         if (_rx_led_enable)
 587              		.loc 1 259 0
 588 0048 0021     		movs	r1, #0
 589 004a 4B23     		movs	r3, #75
 590 004c 424A     		ldr	r2, .L56
 591 004e D154     		strb	r1, [r2, r3]
 592              	.L48:
 260:..\..\src/modbus.c ****             _rx_led_enable(_rx_led_enable_val);
 593              		.loc 1 260 0
 594 0050 414B     		ldr	r3, .L56
 595 0052 DB6C     		ldr	r3, [r3, #76]
 596 0054 002B     		cmp	r3, #0
 597 0056 03D0     		beq	.L47
 261:..\..\src/modbus.c ****     }
 598              		.loc 1 261 0
 599 0058 5022     		movs	r2, #80
 600 005a 3F49     		ldr	r1, .L56
 601 005c 885C     		ldrb	r0, [r1, r2]
 602 005e 9847     		blx	r3
 603              	.LVL72:
 604              	.L47:
ARM GAS  C:\Users\LUKEYO~1\AppData\Local\Temp\cc8QidXF.s 			page 20


 264:..\..\src/modbus.c ****     {
 605              		.loc 1 264 0
 606 0060 3E4B     		ldr	r3, .L56+4
 607 0062 1B78     		ldrb	r3, [r3]
 608 0064 002B     		cmp	r3, #0
 609 0066 27D1     		bne	.L49
 266:..\..\src/modbus.c ****         {
 610              		.loc 1 266 0
 611 0068 5133     		adds	r3, r3, #81
 612 006a 3B4A     		ldr	r2, .L56
 613 006c D35C     		ldrb	r3, [r2, r3]
 614 006e 002B     		cmp	r3, #0
 615 0070 02D0     		beq	.L50
 616 0072 012B     		cmp	r3, #1
 617 0074 0FD0     		beq	.L51
 618 0076 1FE0     		b	.L49
 619              	.L50:
 270:..\..\src/modbus.c ****                 modbus_msg[1], msg_type);
 620              		.loc 1 270 0
 621 0078 374B     		ldr	r3, .L56
 622 007a 4B22     		movs	r2, #75
 623 007c 995C     		ldrb	r1, [r3, r2]
 624 007e 587A     		ldrb	r0, [r3, #9]
 625 0080 FFF7FEFF 		bl	compute_meta_length_after_function
 626              	.LVL73:
 627 0084 354B     		ldr	r3, .L56+4
 628 0086 1870     		strb	r0, [r3]
 272:..\..\src/modbus.c ****             {
 629              		.loc 1 272 0
 630 0088 0028     		cmp	r0, #0
 631 008a 04D0     		beq	.L51
 274:..\..\src/modbus.c ****                 break;
 632              		.loc 1 274 0
 633 008c 0121     		movs	r1, #1
 634 008e 5123     		movs	r3, #81
 635 0090 314A     		ldr	r2, .L56
 636 0092 D154     		strb	r1, [r2, r3]
 275:..\..\src/modbus.c ****             } /* else switches straight to the next step */
 637              		.loc 1 275 0
 638 0094 10E0     		b	.L49
 639              	.L51:
 278:..\..\src/modbus.c ****                                                             msg_type);
 640              		.loc 1 278 0
 641 0096 304C     		ldr	r4, .L56
 642 0098 4B23     		movs	r3, #75
 643 009a E15C     		ldrb	r1, [r4, r3]
 644 009c 2000     		movs	r0, r4
 645 009e 0830     		adds	r0, r0, #8
 646 00a0 FFF7FEFF 		bl	compute_data_length_after_meta
 647              	.LVL74:
 648 00a4 2D4B     		ldr	r3, .L56+4
 649 00a6 1870     		strb	r0, [r3]
 280:..\..\src/modbus.c ****                 goto reset;
 650              		.loc 1 280 0
 651 00a8 4923     		movs	r3, #73
 652 00aa E35C     		ldrb	r3, [r4, r3]
 653 00ac 1818     		adds	r0, r3, r0
ARM GAS  C:\Users\LUKEYO~1\AppData\Local\Temp\cc8QidXF.s 			page 21


 654 00ae 4028     		cmp	r0, #64
 655 00b0 2FDC     		bgt	.L44
 282:..\..\src/modbus.c ****             break;
 656              		.loc 1 282 0
 657 00b2 0221     		movs	r1, #2
 658 00b4 5123     		movs	r3, #81
 659 00b6 E154     		strb	r1, [r4, r3]
 660              	.L49:
 289:..\..\src/modbus.c ****     {
 661              		.loc 1 289 0
 662 00b8 284B     		ldr	r3, .L56+4
 663 00ba 1B78     		ldrb	r3, [r3]
 664 00bc 002B     		cmp	r3, #0
 665 00be 41D1     		bne	.L52
 292:..\..\src/modbus.c ****         if (!crc)
 666              		.loc 1 292 0
 667 00c0 2548     		ldr	r0, .L56
 668 00c2 4933     		adds	r3, r3, #73
 669 00c4 C45C     		ldrb	r4, [r0, r3]
 670 00c6 0830     		adds	r0, r0, #8
 671 00c8 2100     		movs	r1, r4
 672 00ca FFF7FEFF 		bl	crc16_bytes
 673              	.LVL75:
 293:..\..\src/modbus.c ****             retval = msg_length - CRC_LENGTH;
 674              		.loc 1 293 0
 675 00ce 0028     		cmp	r0, #0
 676 00d0 1FD1     		bne	.L44
 294:..\..\src/modbus.c ****         else
 677              		.loc 1 294 0
 678 00d2 A01E     		subs	r0, r4, #2
 679              	.LVL76:
 680 00d4 C0B2     		uxtb	r0, r0
 681              	.LVL77:
 300:..\..\src/modbus.c ****             goto reset;
 682              		.loc 1 300 0
 683 00d6 4B23     		movs	r3, #75
 684 00d8 1F4A     		ldr	r2, .L56
 685 00da D35C     		ldrb	r3, [r2, r3]
 686 00dc 012B     		cmp	r3, #1
 687 00de 18D0     		beq	.L44
 303:..\..\src/modbus.c ****         {
 688              		.loc 1 303 0
 689 00e0 1300     		movs	r3, r2
 690 00e2 127A     		ldrb	r2, [r2, #8]
 691 00e4 4A21     		movs	r1, #74
 692 00e6 5B5C     		ldrb	r3, [r3, r1]
 693 00e8 9A42     		cmp	r2, r3
 694 00ea 0FD0     		beq	.L53
 305:..\..\src/modbus.c ****             {
 695              		.loc 1 305 0
 696 00ec 5223     		movs	r3, #82
 697 00ee 1A4A     		ldr	r2, .L56
 698 00f0 D35C     		ldrb	r3, [r2, r3]
 699 00f2 002B     		cmp	r3, #0
 700 00f4 05D0     		beq	.L54
 308:..\..\src/modbus.c ****                 goto reset;
 701              		.loc 1 308 0
ARM GAS  C:\Users\LUKEYO~1\AppData\Local\Temp\cc8QidXF.s 			page 22


 702 00f6 2100     		movs	r1, r4
 703 00f8 1000     		movs	r0, r2
 704              	.LVL78:
 705 00fa 0830     		adds	r0, r0, #8
 706 00fc FFF7FEFF 		bl	RS485_PutArray
 707              	.LVL79:
 309:..\..\src/modbus.c ****             }
 708              		.loc 1 309 0
 709 0100 07E0     		b	.L44
 710              	.LVL80:
 711              	.L54:
 314:..\..\src/modbus.c ****             goto reset_with_timeout;
 712              		.loc 1 314 0
 713 0102 0121     		movs	r1, #1
 714 0104 4B23     		movs	r3, #75
 715 0106 144A     		ldr	r2, .L56
 716 0108 D154     		strb	r1, [r2, r3]
 315:..\..\src/modbus.c ****         }
 717              		.loc 1 315 0
 718 010a 08E0     		b	.L55
 719              	.L53:
 318:..\..\src/modbus.c **** 
 720              		.loc 1 318 0
 721 010c 40B2     		sxtb	r0, r0
 722 010e FFF7FEFF 		bl	modbus_reply
 723              	.LVL81:
 724              	.L44:
 321:..\..\src/modbus.c ****         msg_type = MSG_INDICATION;
 725              		.loc 1 321 0
 726 0112 FFF7FEFF 		bl	_modbus_timer_stop_and_reset
 727              	.LVL82:
 322:..\..\src/modbus.c ****     reset_with_timeout:
 728              		.loc 1 322 0
 729 0116 0021     		movs	r1, #0
 730 0118 4B23     		movs	r3, #75
 731 011a 0F4A     		ldr	r2, .L56
 732 011c D154     		strb	r1, [r2, r3]
 733              	.L55:
 324:..\..\src/modbus.c ****         length_to_read = HEADER_FUNCTION_LENGTH;
 734              		.loc 1 324 0
 735 011e 0E4B     		ldr	r3, .L56
 736 0120 0022     		movs	r2, #0
 737 0122 4921     		movs	r1, #73
 738 0124 5A54     		strb	r2, [r3, r1]
 325:..\..\src/modbus.c ****         step = _STEP_FUNCTION;
 739              		.loc 1 325 0
 740 0126 0220     		movs	r0, #2
 741 0128 0C49     		ldr	r1, .L56+4
 742 012a 0870     		strb	r0, [r1]
 326:..\..\src/modbus.c ****         if (_rx_led_enable)
 743              		.loc 1 326 0
 744 012c 5121     		movs	r1, #81
 745 012e 5A54     		strb	r2, [r3, r1]
 327:..\..\src/modbus.c ****             _rx_led_enable(!_rx_led_enable_val);
 746              		.loc 1 327 0
 747 0130 DB6C     		ldr	r3, [r3, #76]
 748 0132 002B     		cmp	r3, #0
ARM GAS  C:\Users\LUKEYO~1\AppData\Local\Temp\cc8QidXF.s 			page 23


 749 0134 06D0     		beq	.L52
 328:..\..\src/modbus.c ****     }
 750              		.loc 1 328 0
 751 0136 5032     		adds	r2, r2, #80
 752 0138 0749     		ldr	r1, .L56
 753 013a 885C     		ldrb	r0, [r1, r2]
 754 013c 4242     		rsbs	r2, r0, #0
 755 013e 5041     		adcs	r0, r0, r2
 756 0140 C0B2     		uxtb	r0, r0
 757 0142 9847     		blx	r3
 758              	.LVL83:
 759              	.L52:
 331:..\..\src/modbus.c ****         goto loop;
 760              		.loc 1 331 0
 761 0144 FFF7FEFF 		bl	modbus_read_ready
 762              	.LVL84:
 763 0148 0028     		cmp	r0, #0
 764 014a 00D0     		beq	.LCB680
 765 014c 64E7     		b	.L46	@long jump
 766              	.LCB680:
 334:..\..\src/modbus.c **** }
 767              		.loc 1 334 0
 768 014e 4923     		movs	r3, #73
 769 0150 014A     		ldr	r2, .L56
 770 0152 D05C     		ldrb	r0, [r2, r3]
 771              	.L45:
 335:..\..\src/modbus.c **** 
 772              		.loc 1 335 0
 773              		@ sp needed
 774 0154 70BD     		pop	{r4, r5, r6, pc}
 775              	.L57:
 776 0156 C046     		.align	2
 777              	.L56:
 778 0158 00000000 		.word	.LANCHOR0
 779 015c 00000000 		.word	.LANCHOR1
 780              		.cfi_endproc
 781              	.LFE38:
 782              		.size	modbus_poll, .-modbus_poll
 783              		.section	.text.modbus_init,"ax",%progbits
 784              		.align	2
 785              		.global	modbus_init
 786              		.code	16
 787              		.thumb_func
 788              		.type	modbus_init, %function
 789              	modbus_init:
 790              	.LFB39:
 351:..\..\src/modbus.c **** #endif
 791              		.loc 1 351 0
 792              		.cfi_startproc
 793              		@ args = 0, pretend = 0, frame = 0
 794              		@ frame_needed = 0, uses_anonymous_args = 0
 795              	.LVL85:
 796 0000 10B5     		push	{r4, lr}
 797              		.cfi_def_cfa_offset 8
 798              		.cfi_offset 4, -8
 799              		.cfi_offset 14, -4
 353:..\..\src/modbus.c ****     _modbus_timer_init();
ARM GAS  C:\Users\LUKEYO~1\AppData\Local\Temp\cc8QidXF.s 			page 24


 800              		.loc 1 353 0
 801 0002 4A23     		movs	r3, #74
 802 0004 034A     		ldr	r2, .L59
 803 0006 D054     		strb	r0, [r2, r3]
 354:..\..\src/modbus.c ****     _modbus_UART_init();
 804              		.loc 1 354 0
 805 0008 FFF7FEFF 		bl	_modbus_timer_init
 806              	.LVL86:
 355:..\..\src/modbus.c **** }
 807              		.loc 1 355 0
 808 000c FFF7FEFF 		bl	_modbus_UART_init
 809              	.LVL87:
 356:..\..\src/modbus.c **** 
 810              		.loc 1 356 0
 811              		@ sp needed
 812 0010 10BD     		pop	{r4, pc}
 813              	.L60:
 814 0012 C046     		.align	2
 815              	.L59:
 816 0014 00000000 		.word	.LANCHOR0
 817              		.cfi_endproc
 818              	.LFE39:
 819              		.size	modbus_init, .-modbus_init
 820              		.section	.text.modbus_enable_forwarding,"ax",%progbits
 821              		.align	2
 822              		.global	modbus_enable_forwarding
 823              		.code	16
 824              		.thumb_func
 825              		.type	modbus_enable_forwarding, %function
 826              	modbus_enable_forwarding:
 827              	.LFB40:
 359:..\..\src/modbus.c ****     _forwarding = val;
 828              		.loc 1 359 0
 829              		.cfi_startproc
 830              		@ args = 0, pretend = 0, frame = 0
 831              		@ frame_needed = 0, uses_anonymous_args = 0
 832              		@ link register save eliminated.
 833              	.LVL88:
 360:..\..\src/modbus.c **** }
 834              		.loc 1 360 0
 835 0000 5223     		movs	r3, #82
 836 0002 014A     		ldr	r2, .L62
 837 0004 D054     		strb	r0, [r2, r3]
 361:..\..\src/modbus.c **** 
 838              		.loc 1 361 0
 839              		@ sp needed
 840 0006 7047     		bx	lr
 841              	.L63:
 842              		.align	2
 843              	.L62:
 844 0008 00000000 		.word	.LANCHOR0
 845              		.cfi_endproc
 846              	.LFE40:
 847              		.size	modbus_enable_forwarding, .-modbus_enable_forwarding
 848              		.section	.text.modbus_tx_led,"ax",%progbits
 849              		.align	2
 850              		.global	modbus_tx_led
ARM GAS  C:\Users\LUKEYO~1\AppData\Local\Temp\cc8QidXF.s 			page 25


 851              		.code	16
 852              		.thumb_func
 853              		.type	modbus_tx_led, %function
 854              	modbus_tx_led:
 855              	.LFB41:
 364:..\..\src/modbus.c ****     _tx_led_enable = led_enable;
 856              		.loc 1 364 0
 857              		.cfi_startproc
 858              		@ args = 0, pretend = 0, frame = 0
 859              		@ frame_needed = 0, uses_anonymous_args = 0
 860              		@ link register save eliminated.
 861              	.LVL89:
 365:..\..\src/modbus.c ****     _tx_led_enable_val = val;
 862              		.loc 1 365 0
 863 0000 014B     		ldr	r3, .L65
 864 0002 1860     		str	r0, [r3]
 366:..\..\src/modbus.c **** }
 865              		.loc 1 366 0
 866 0004 1971     		strb	r1, [r3, #4]
 367:..\..\src/modbus.c **** 
 867              		.loc 1 367 0
 868              		@ sp needed
 869 0006 7047     		bx	lr
 870              	.L66:
 871              		.align	2
 872              	.L65:
 873 0008 00000000 		.word	.LANCHOR0
 874              		.cfi_endproc
 875              	.LFE41:
 876              		.size	modbus_tx_led, .-modbus_tx_led
 877              		.section	.text.modbus_rx_led,"ax",%progbits
 878              		.align	2
 879              		.global	modbus_rx_led
 880              		.code	16
 881              		.thumb_func
 882              		.type	modbus_rx_led, %function
 883              	modbus_rx_led:
 884              	.LFB42:
 370:..\..\src/modbus.c ****     _rx_led_enable = led_enable;
 885              		.loc 1 370 0
 886              		.cfi_startproc
 887              		@ args = 0, pretend = 0, frame = 0
 888              		@ frame_needed = 0, uses_anonymous_args = 0
 889              		@ link register save eliminated.
 890              	.LVL90:
 371:..\..\src/modbus.c ****     _rx_led_enable_val = val;
 891              		.loc 1 371 0
 892 0000 024B     		ldr	r3, .L68
 893 0002 D864     		str	r0, [r3, #76]
 372:..\..\src/modbus.c **** }
 894              		.loc 1 372 0
 895 0004 5022     		movs	r2, #80
 896 0006 9954     		strb	r1, [r3, r2]
 373:..\..\src/modbus.c **** 
 897              		.loc 1 373 0
 898              		@ sp needed
 899 0008 7047     		bx	lr
ARM GAS  C:\Users\LUKEYO~1\AppData\Local\Temp\cc8QidXF.s 			page 26


 900              	.L69:
 901 000a C046     		.align	2
 902              	.L68:
 903 000c 00000000 		.word	.LANCHOR0
 904              		.cfi_endproc
 905              	.LFE42:
 906              		.size	modbus_rx_led, .-modbus_rx_led
 907              		.section	.text.modbus_slave_id_response,"ax",%progbits
 908              		.align	2
 909              		.global	modbus_slave_id_response
 910              		.code	16
 911              		.thumb_func
 912              		.type	modbus_slave_id_response, %function
 913              	modbus_slave_id_response:
 914              	.LFB43:
 377:..\..\src/modbus.c ****     msg[0] = sizeof(MODBUS_SLAVE_STRING) + 2;
 915              		.loc 1 377 0
 916              		.cfi_startproc
 917              		@ args = 0, pretend = 0, frame = 0
 918              		@ frame_needed = 0, uses_anonymous_args = 0
 919              	.LVL91:
 920 0000 10B5     		push	{r4, lr}
 921              		.cfi_def_cfa_offset 8
 922              		.cfi_offset 4, -8
 923              		.cfi_offset 14, -4
 378:..\..\src/modbus.c ****     msg[1] = _slave_addr;
 924              		.loc 1 378 0
 925 0002 1923     		movs	r3, #25
 926 0004 0370     		strb	r3, [r0]
 379:..\..\src/modbus.c ****     msg[2] = 0xff; /* Run indicator status */
 927              		.loc 1 379 0
 928 0006 3133     		adds	r3, r3, #49
 929 0008 054A     		ldr	r2, .L71
 930 000a D35C     		ldrb	r3, [r2, r3]
 931 000c 4370     		strb	r3, [r0, #1]
 380:..\..\src/modbus.c ****     memcpy(&msg[3], MODBUS_SLAVE_STRING, sizeof(MODBUS_SLAVE_STRING));
 932              		.loc 1 380 0
 933 000e FF23     		movs	r3, #255
 934 0010 8370     		strb	r3, [r0, #2]
 381:..\..\src/modbus.c ****     return sizeof(MODBUS_SLAVE_STRING) + 3;
 935              		.loc 1 381 0
 936 0012 0330     		adds	r0, r0, #3
 937              	.LVL92:
 938 0014 1722     		movs	r2, #23
 939 0016 0349     		ldr	r1, .L71+4
 940 0018 FFF7FEFF 		bl	memcpy
 941              	.LVL93:
 383:..\..\src/modbus.c **** 
 942              		.loc 1 383 0
 943 001c 1A20     		movs	r0, #26
 944              		@ sp needed
 945 001e 10BD     		pop	{r4, pc}
 946              	.L72:
 947              		.align	2
 948              	.L71:
 949 0020 00000000 		.word	.LANCHOR0
 950 0024 00000000 		.word	.LC11
ARM GAS  C:\Users\LUKEYO~1\AppData\Local\Temp\cc8QidXF.s 			page 27


 951              		.cfi_endproc
 952              	.LFE43:
 953              		.size	modbus_slave_id_response, .-modbus_slave_id_response
 954              		.section	.text.mb_data_init,"ax",%progbits
 955              		.align	2
 956              		.global	mb_data_init
 957              		.code	16
 958              		.thumb_func
 959              		.type	mb_data_init, %function
 960              	mb_data_init:
 961              	.LFB44:
 392:..\..\src/modbus.c ****     mb_address = mb_buf_to_val(&msg[MODBUS_MSG_ADDR_OFFSET]);
 962              		.loc 1 392 0
 963              		.cfi_startproc
 964              		@ args = 0, pretend = 0, frame = 0
 965              		@ frame_needed = 0, uses_anonymous_args = 0
 966              	.LVL94:
 967 0000 70B5     		push	{r4, r5, r6, lr}
 968              		.cfi_def_cfa_offset 16
 969              		.cfi_offset 4, -16
 970              		.cfi_offset 5, -12
 971              		.cfi_offset 6, -8
 972              		.cfi_offset 14, -4
 973 0002 0400     		movs	r4, r0
 974 0004 0D00     		movs	r5, r1
 393:..\..\src/modbus.c ****     mb_nr_regs = mb_buf_to_val(&msg[MODBUS_MSG_NR_REGS_OFFSET]);
 975              		.loc 1 393 0
 976 0006 FFF7FEFF 		bl	mb_buf_to_val
 977              	.LVL95:
 978 000a 134B     		ldr	r3, .L78
 979 000c 1880     		strh	r0, [r3]
 394:..\..\src/modbus.c ****     switch (fn)
 980              		.loc 1 394 0
 981 000e A01C     		adds	r0, r4, #2
 982 0010 FFF7FEFF 		bl	mb_buf_to_val
 983              	.LVL96:
 984 0014 C0B2     		uxtb	r0, r0
 985 0016 114B     		ldr	r3, .L78+4
 986 0018 1870     		strb	r0, [r3]
 395:..\..\src/modbus.c ****     {
 987              		.loc 1 395 0
 988 001a 062D     		cmp	r5, #6
 989 001c 0ED0     		beq	.L75
 990 001e 102D     		cmp	r5, #16
 991 0020 14D0     		beq	.L76
 992 0022 032D     		cmp	r5, #3
 993 0024 16D1     		bne	.L73
 398:..\..\src/modbus.c ****         mb_resp_bytes = 1 + mb_nr_regs * 2;
 994              		.loc 1 398 0
 995 0026 0121     		movs	r1, #1
 996 0028 5323     		movs	r3, #83
 997 002a 0D4A     		ldr	r2, .L78+8
 998 002c D154     		strb	r1, [r2, r3]
 399:..\..\src/modbus.c ****         msg[MODBUS_MSG_LEN_OFFSET] = mb_resp_bytes - 1;
 999              		.loc 1 399 0
 1000 002e 4000     		lsls	r0, r0, #1
 1001 0030 C0B2     		uxtb	r0, r0
ARM GAS  C:\Users\LUKEYO~1\AppData\Local\Temp\cc8QidXF.s 			page 28


 1002 0032 421C     		adds	r2, r0, #1
 1003 0034 0B4B     		ldr	r3, .L78+12
 1004 0036 1A70     		strb	r2, [r3]
 400:..\..\src/modbus.c ****         return;
 1005              		.loc 1 400 0
 1006 0038 2070     		strb	r0, [r4]
 401:..\..\src/modbus.c ****     case _FC_WRITE_SINGLE_REGISTER:
 1007              		.loc 1 401 0
 1008 003a 0BE0     		b	.L73
 1009              	.L75:
 403:..\..\src/modbus.c ****         mb_nr_regs = 1;
 1010              		.loc 1 403 0
 1011 003c 0221     		movs	r1, #2
 1012 003e 5323     		movs	r3, #83
 1013 0040 074A     		ldr	r2, .L78+8
 1014 0042 D154     		strb	r1, [r2, r3]
 404:..\..\src/modbus.c ****         return;
 1015              		.loc 1 404 0
 1016 0044 0122     		movs	r2, #1
 1017 0046 054B     		ldr	r3, .L78+4
 1018 0048 1A70     		strb	r2, [r3]
 405:..\..\src/modbus.c ****     case _FC_WRITE_MULTIPLE_REGISTERS:
 1019              		.loc 1 405 0
 1020 004a 03E0     		b	.L73
 1021              	.L76:
 407:..\..\src/modbus.c ****         return;
 1022              		.loc 1 407 0
 1023 004c 0521     		movs	r1, #5
 1024 004e 5323     		movs	r3, #83
 1025 0050 034A     		ldr	r2, .L78+8
 1026 0052 D154     		strb	r1, [r2, r3]
 1027              	.L73:
 410:..\..\src/modbus.c **** 
 1028              		.loc 1 410 0
 1029              		@ sp needed
 1030              	.LVL97:
 1031 0054 70BD     		pop	{r4, r5, r6, pc}
 1032              	.L79:
 1033 0056 C046     		.align	2
 1034              	.L78:
 1035 0058 00000000 		.word	mb_address
 1036 005c 00000000 		.word	mb_nr_regs
 1037 0060 00000000 		.word	.LANCHOR0
 1038 0064 00000000 		.word	mb_resp_bytes
 1039              		.cfi_endproc
 1040              	.LFE44:
 1041              		.size	mb_data_init, .-mb_data_init
 1042              		.section	.text.mb_data_resp,"ax",%progbits
 1043              		.align	2
 1044              		.global	mb_data_resp
 1045              		.code	16
 1046              		.thumb_func
 1047              		.type	mb_data_resp, %function
 1048              	mb_data_resp:
 1049              	.LFB45:
 413:..\..\src/modbus.c ****     _mb_data_offset += mb_val_to_buf(&msg[_mb_data_offset], val);
 1050              		.loc 1 413 0
ARM GAS  C:\Users\LUKEYO~1\AppData\Local\Temp\cc8QidXF.s 			page 29


 1051              		.cfi_startproc
 1052              		@ args = 0, pretend = 0, frame = 0
 1053              		@ frame_needed = 0, uses_anonymous_args = 0
 1054              	.LVL98:
 1055 0000 70B5     		push	{r4, r5, r6, lr}
 1056              		.cfi_def_cfa_offset 16
 1057              		.cfi_offset 4, -16
 1058              		.cfi_offset 5, -12
 1059              		.cfi_offset 6, -8
 1060              		.cfi_offset 14, -4
 414:..\..\src/modbus.c ****     mb_nr_regs--;
 1061              		.loc 1 414 0
 1062 0002 094D     		ldr	r5, .L81
 1063 0004 5324     		movs	r4, #83
 1064 0006 2B5D     		ldrb	r3, [r5, r4]
 1065 0008 C018     		adds	r0, r0, r3
 1066              	.LVL99:
 1067 000a FFF7FEFF 		bl	mb_val_to_buf
 1068              	.LVL100:
 1069 000e 2B5D     		ldrb	r3, [r5, r4]
 1070 0010 C018     		adds	r0, r0, r3
 1071 0012 2855     		strb	r0, [r5, r4]
 415:..\..\src/modbus.c ****     mb_address++;
 1072              		.loc 1 415 0
 1073 0014 054A     		ldr	r2, .L81+4
 1074 0016 1378     		ldrb	r3, [r2]
 1075 0018 013B     		subs	r3, r3, #1
 1076 001a 1370     		strb	r3, [r2]
 416:..\..\src/modbus.c **** }
 1077              		.loc 1 416 0
 1078 001c 044A     		ldr	r2, .L81+8
 1079 001e 1388     		ldrh	r3, [r2]
 1080 0020 0133     		adds	r3, r3, #1
 1081 0022 1380     		strh	r3, [r2]
 417:..\..\src/modbus.c **** 
 1082              		.loc 1 417 0
 1083              		@ sp needed
 1084 0024 70BD     		pop	{r4, r5, r6, pc}
 1085              	.L82:
 1086 0026 C046     		.align	2
 1087              	.L81:
 1088 0028 00000000 		.word	.LANCHOR0
 1089 002c 00000000 		.word	mb_nr_regs
 1090 0030 00000000 		.word	mb_address
 1091              		.cfi_endproc
 1092              	.LFE45:
 1093              		.size	mb_data_resp, .-mb_data_resp
 1094              		.section	.text.mb_data_next,"ax",%progbits
 1095              		.align	2
 1096              		.global	mb_data_next
 1097              		.code	16
 1098              		.thumb_func
 1099              		.type	mb_data_next, %function
 1100              	mb_data_next:
 1101              	.LFB46:
 420:..\..\src/modbus.c ****     uint16_t retval = mb_buf_to_val(&msg[_mb_data_offset]);
 1102              		.loc 1 420 0
ARM GAS  C:\Users\LUKEYO~1\AppData\Local\Temp\cc8QidXF.s 			page 30


 1103              		.cfi_startproc
 1104              		@ args = 0, pretend = 0, frame = 0
 1105              		@ frame_needed = 0, uses_anonymous_args = 0
 1106              	.LVL101:
 1107 0000 70B5     		push	{r4, r5, r6, lr}
 1108              		.cfi_def_cfa_offset 16
 1109              		.cfi_offset 4, -16
 1110              		.cfi_offset 5, -12
 1111              		.cfi_offset 6, -8
 1112              		.cfi_offset 14, -4
 421:..\..\src/modbus.c ****     mb_nr_regs--;
 1113              		.loc 1 421 0
 1114 0002 084E     		ldr	r6, .L84
 1115 0004 5325     		movs	r5, #83
 1116 0006 745D     		ldrb	r4, [r6, r5]
 1117 0008 0019     		adds	r0, r0, r4
 1118              	.LVL102:
 1119 000a FFF7FEFF 		bl	mb_buf_to_val
 1120              	.LVL103:
 422:..\..\src/modbus.c ****     mb_address++;
 1121              		.loc 1 422 0
 1122 000e 064A     		ldr	r2, .L84+4
 1123 0010 1378     		ldrb	r3, [r2]
 1124 0012 013B     		subs	r3, r3, #1
 1125 0014 1370     		strb	r3, [r2]
 423:..\..\src/modbus.c ****     _mb_data_offset += 2;
 1126              		.loc 1 423 0
 1127 0016 054A     		ldr	r2, .L84+8
 1128 0018 1388     		ldrh	r3, [r2]
 1129 001a 0133     		adds	r3, r3, #1
 1130 001c 1380     		strh	r3, [r2]
 424:..\..\src/modbus.c ****     return retval;
 1131              		.loc 1 424 0
 1132 001e 0234     		adds	r4, r4, #2
 1133 0020 7455     		strb	r4, [r6, r5]
 426:..\..\src/modbus.c **** 
 1134              		.loc 1 426 0
 1135              		@ sp needed
 1136 0022 70BD     		pop	{r4, r5, r6, pc}
 1137              	.L85:
 1138              		.align	2
 1139              	.L84:
 1140 0024 00000000 		.word	.LANCHOR0
 1141 0028 00000000 		.word	mb_nr_regs
 1142 002c 00000000 		.word	mb_address
 1143              		.cfi_endproc
 1144              	.LFE46:
 1145              		.size	mb_data_next, .-mb_data_next
 1146              		.comm	mb_resp_bytes,1,1
 1147              		.comm	mb_nr_regs,1,1
 1148              		.comm	mb_address,2,2
 1149              		.global	_modbus_timer_finished
 1150              		.data
 1151              		.set	.LANCHOR1,. + 0
 1152              		.type	length_to_read.5725, %object
 1153              		.size	length_to_read.5725, 1
 1154              	length_to_read.5725:
ARM GAS  C:\Users\LUKEYO~1\AppData\Local\Temp\cc8QidXF.s 			page 31


 1155 0000 02       		.byte	2
 1156              		.section	.rodata.str1.4,"aMS",%progbits,1
 1157              		.align	2
 1158              	.LC11:
 1159 0000 50534F43 		.ascii	"PSOC 4200 MODBUS SLAVE\000"
 1159      20343230 
 1159      30204D4F 
 1159      44425553 
 1159      20534C41 
 1160              		.bss
 1161              		.align	2
 1162              		.set	.LANCHOR0,. + 0
 1163              		.type	_tx_led_enable, %object
 1164              		.size	_tx_led_enable, 4
 1165              	_tx_led_enable:
 1166 0000 00000000 		.space	4
 1167              		.type	_tx_led_enable_val, %object
 1168              		.size	_tx_led_enable_val, 1
 1169              	_tx_led_enable_val:
 1170 0004 00       		.space	1
 1171 0005 000000   		.space	3
 1172              		.type	modbus_msg, %object
 1173              		.size	modbus_msg, 64
 1174              	modbus_msg:
 1175 0008 00000000 		.space	64
 1175      00000000 
 1175      00000000 
 1175      00000000 
 1175      00000000 
 1176              		.type	_modbus_timer_finished, %object
 1177              		.size	_modbus_timer_finished, 1
 1178              	_modbus_timer_finished:
 1179 0048 00       		.space	1
 1180              		.type	msg_length.5726, %object
 1181              		.size	msg_length.5726, 1
 1182              	msg_length.5726:
 1183 0049 00       		.space	1
 1184              		.type	_slave_addr, %object
 1185              		.size	_slave_addr, 1
 1186              	_slave_addr:
 1187 004a 00       		.space	1
 1188              		.type	msg_type.5728, %object
 1189              		.size	msg_type.5728, 1
 1190              	msg_type.5728:
 1191 004b 00       		.space	1
 1192              		.type	_rx_led_enable, %object
 1193              		.size	_rx_led_enable, 4
 1194              	_rx_led_enable:
 1195 004c 00000000 		.space	4
 1196              		.type	_rx_led_enable_val, %object
 1197              		.size	_rx_led_enable_val, 1
 1198              	_rx_led_enable_val:
 1199 0050 00       		.space	1
 1200              		.type	step.5727, %object
 1201              		.size	step.5727, 1
 1202              	step.5727:
 1203 0051 00       		.space	1
ARM GAS  C:\Users\LUKEYO~1\AppData\Local\Temp\cc8QidXF.s 			page 32


 1204              		.type	_forwarding, %object
 1205              		.size	_forwarding, 1
 1206              	_forwarding:
 1207 0052 00       		.space	1
 1208              		.type	_mb_data_offset, %object
 1209              		.size	_mb_data_offset, 1
 1210              	_mb_data_offset:
 1211 0053 00       		.space	1
 1212              		.text
 1213              	.Letext0:
 1214              		.file 2 "c:\\program files (x86)\\cypress\\psoc creator\\4.2\\psoc creator\\import\\gnu\\arm\\5.4.
 1215              		.file 3 "c:\\program files (x86)\\cypress\\psoc creator\\4.2\\psoc creator\\import\\gnu\\arm\\5.4.
 1216              		.file 4 "..\\..\\src\\modbus.h"
 1217              		.file 5 "..\\..\\src\\modbus-local.h"
 1218              		.file 6 "Generated_Source\\PSoC4/RS485.h"