ARM GAS  C:\Users\LUKEYO~1\AppData\Local\Temp\cc2zQIlg.s 			page 1


   1              		.syntax unified
   2              		.cpu cortex-m0
   3              		.fpu softvfp
   4              		.eabi_attribute 20, 1
   5              		.eabi_attribute 21, 1
   6              		.eabi_attribute 23, 3
   7              		.eabi_attribute 24, 1
   8              		.eabi_attribute 25, 1
   9              		.eabi_attribute 26, 1
  10              		.eabi_attribute 30, 1
  11              		.eabi_attribute 34, 0
  12              		.eabi_attribute 18, 4
  13              		.thumb
  14              		.syntax unified
  15              		.file	"modbus-local-uart.c"
  16              		.text
  17              	.Ltext0:
  18              		.cfi_sections	.debug_frame
  19              		.section	.text.rs485_rx_isr,"ax",%progbits
  20              		.align	2
  21              		.global	rs485_rx_isr
  22              		.code	16
  23              		.thumb_func
  24              		.type	rs485_rx_isr, %function
  25              	rs485_rx_isr:
  26              	.LFB32:
  27              		.file 1 "..\\..\\src\\modbus-local-uart.c"
   1:..\..\src/modbus-local-uart.c **** /**
   2:..\..\src/modbus-local-uart.c ****  * @file    modbus-local-uart.c
   3:..\..\src/modbus-local-uart.c ****  * @brief   Provides modbus-local.h with local UART function defintions
   4:..\..\src/modbus-local-uart.c ****  * @author  Luke Young (L S Young Electrical)
   5:..\..\src/modbus-local-uart.c ****  * 
   6:..\..\src/modbus-local-uart.c ****  * Slightly amended version of 
   7:..\..\src/modbus-local-uart.c ****  * uC_Modbus by Kim Taylor <https://github.com/kmtaylor>
   8:..\..\src/modbus-local-uart.c ****  * 
   9:..\..\src/modbus-local-uart.c ****  * Based on libmodbus by Stéphane Raimbault <stephane.raimbault@gmail.com>
  10:..\..\src/modbus-local-uart.c ****  *
  11:..\..\src/modbus-local-uart.c ****  * @copyright
  12:..\..\src/modbus-local-uart.c ****  * This library is free software; you can redistribute it and/or
  13:..\..\src/modbus-local-uart.c ****  * modify it under the terms of the GNU Lesser General Public
  14:..\..\src/modbus-local-uart.c ****  * License as published by the Free Software Foundation; either
  15:..\..\src/modbus-local-uart.c ****  * version 2.1 of the License, or (at your option) any later version.
  16:..\..\src/modbus-local-uart.c ****  * 
  17:..\..\src/modbus-local-uart.c ****  * This library is distributed in the hope that it will be useful,
  18:..\..\src/modbus-local-uart.c ****  * but WITHOUT ANY WARRANTY; without even the implied warranty of
  19:..\..\src/modbus-local-uart.c ****  * MERCHANTABILITY or FITNESS FOR A PARTICULAR PURPOSE.  See the GNU
  20:..\..\src/modbus-local-uart.c ****  * Lesser General Public License for more details.
  21:..\..\src/modbus-local-uart.c ****  * 
  22:..\..\src/modbus-local-uart.c ****  * @details
  23:..\..\src/modbus-local-uart.c ****  * This file defines the UART related functions used by modbus.h/c and 
  24:..\..\src/modbus-local-uart.c ****  * modbus-local.h . The functions are all specfic to the PSOC 4200 micro
  25:..\..\src/modbus-local-uart.c ****  * controller and require the UART component in the PSOC creator 
  26:..\..\src/modbus-local-uart.c ****  * project to have the exact name "RS485" additionally, the attached 
  27:..\..\src/modbus-local-uart.c ****  * rx interrupt MUST be named "RS485_RX_ISR".
  28:..\..\src/modbus-local-uart.c ****  * 
  29:..\..\src/modbus-local-uart.c ****  * In order to buffer/store incoming UART data this file uses the ring_buf_s
  30:..\..\src/modbus-local-uart.c ****  * data type from Kim Taylor's ringbuffer.h .
ARM GAS  C:\Users\LUKEYO~1\AppData\Local\Temp\cc2zQIlg.s 			page 2


  31:..\..\src/modbus-local-uart.c ****  * 
  32:..\..\src/modbus-local-uart.c ****  * When porting the libray, all the functions in this this file 
  33:..\..\src/modbus-local-uart.c ****  * MUST be adapted to the API of the micro controller architecture you are
  34:..\..\src/modbus-local-uart.c ****  * useing.
  35:..\..\src/modbus-local-uart.c ****  */
  36:..\..\src/modbus-local-uart.c **** 
  37:..\..\src/modbus-local-uart.c **** #include "modbus-local.h"
  38:..\..\src/modbus-local-uart.c **** #include "ringbuffer.h"
  39:..\..\src/modbus-local-uart.c **** 
  40:..\..\src/modbus-local-uart.c **** volatile struct ring_buf_s rs_rd_buf = {0};
  41:..\..\src/modbus-local-uart.c **** 
  42:..\..\src/modbus-local-uart.c **** CY_ISR(rs485_rx_isr)
  43:..\..\src/modbus-local-uart.c **** {
  28              		.loc 1 43 0
  29              		.cfi_startproc
  30              		@ args = 0, pretend = 0, frame = 0
  31              		@ frame_needed = 0, uses_anonymous_args = 0
  32 0000 10B5     		push	{r4, lr}
  33              		.cfi_def_cfa_offset 8
  34              		.cfi_offset 4, -8
  35              		.cfi_offset 14, -4
  44:..\..\src/modbus-local-uart.c ****     while (RS485_GetRxBufferSize())
  36              		.loc 1 44 0
  37 0002 0CE0     		b	.L2
  38              	.L4:
  45:..\..\src/modbus-local-uart.c ****     {
  46:..\..\src/modbus-local-uart.c ****         if (ring_buf_full(&rs_rd_buf))
  39              		.loc 1 46 0
  40 0004 0848     		ldr	r0, .L5
  41 0006 FFF7FEFF 		bl	ring_buf_full
  42              	.LVL0:
  43 000a 0028     		cmp	r0, #0
  44 000c 0BD1     		bne	.L1
  47:..\..\src/modbus-local-uart.c ****             break;
  48:..\..\src/modbus-local-uart.c ****         ring_buf_in(&rs_rd_buf, RS485_ReadRxData());
  45              		.loc 1 48 0
  46 000e FFF7FEFF 		bl	RS485_ReadRxData
  47              	.LVL1:
  48 0012 0100     		movs	r1, r0
  49 0014 0448     		ldr	r0, .L5
  50 0016 FFF7FEFF 		bl	ring_buf_in
  51              	.LVL2:
  49:..\..\src/modbus-local-uart.c ****         modbus_timer_reset();
  52              		.loc 1 49 0
  53 001a FFF7FEFF 		bl	modbus_timer_reset
  54              	.LVL3:
  55              	.L2:
  44:..\..\src/modbus-local-uart.c ****     {
  56              		.loc 1 44 0
  57 001e FFF7FEFF 		bl	RS485_GetRxBufferSize
  58              	.LVL4:
  59 0022 0028     		cmp	r0, #0
  60 0024 EED1     		bne	.L4
  61              	.L1:
  50:..\..\src/modbus-local-uart.c ****     }
  51:..\..\src/modbus-local-uart.c **** }
  62              		.loc 1 51 0
ARM GAS  C:\Users\LUKEYO~1\AppData\Local\Temp\cc2zQIlg.s 			page 3


  63              		@ sp needed
  64 0026 10BD     		pop	{r4, pc}
  65              	.L6:
  66              		.align	2
  67              	.L5:
  68 0028 00000000 		.word	.LANCHOR0
  69              		.cfi_endproc
  70              	.LFE32:
  71              		.size	rs485_rx_isr, .-rs485_rx_isr
  72              		.section	.text._modbus_UART_init,"ax",%progbits
  73              		.align	2
  74              		.global	_modbus_UART_init
  75              		.code	16
  76              		.thumb_func
  77              		.type	_modbus_UART_init, %function
  78              	_modbus_UART_init:
  79              	.LFB33:
  52:..\..\src/modbus-local-uart.c **** 
  53:..\..\src/modbus-local-uart.c **** void _modbus_UART_init(void)
  54:..\..\src/modbus-local-uart.c **** {
  80              		.loc 1 54 0
  81              		.cfi_startproc
  82              		@ args = 0, pretend = 0, frame = 0
  83              		@ frame_needed = 0, uses_anonymous_args = 0
  84 0000 10B5     		push	{r4, lr}
  85              		.cfi_def_cfa_offset 8
  86              		.cfi_offset 4, -8
  87              		.cfi_offset 14, -4
  55:..\..\src/modbus-local-uart.c ****     RS485_Start();
  88              		.loc 1 55 0
  89 0002 FFF7FEFF 		bl	RS485_Start
  90              	.LVL5:
  56:..\..\src/modbus-local-uart.c ****     RS485_RX_ISR_StartEx(rs485_rx_isr);
  91              		.loc 1 56 0
  92 0006 0248     		ldr	r0, .L8
  93 0008 FFF7FEFF 		bl	RS485_RX_ISR_StartEx
  94              	.LVL6:
  57:..\..\src/modbus-local-uart.c **** }
  95              		.loc 1 57 0
  96              		@ sp needed
  97 000c 10BD     		pop	{r4, pc}
  98              	.L9:
  99 000e C046     		.align	2
 100              	.L8:
 101 0010 00000000 		.word	rs485_rx_isr
 102              		.cfi_endproc
 103              	.LFE33:
 104              		.size	_modbus_UART_init, .-_modbus_UART_init
 105              		.section	.text.modbus_get_byte,"ax",%progbits
 106              		.align	2
 107              		.global	modbus_get_byte
 108              		.code	16
 109              		.thumb_func
 110              		.type	modbus_get_byte, %function
 111              	modbus_get_byte:
 112              	.LFB34:
  58:..\..\src/modbus-local-uart.c **** 
ARM GAS  C:\Users\LUKEYO~1\AppData\Local\Temp\cc2zQIlg.s 			page 4


  59:..\..\src/modbus-local-uart.c **** uint8_t modbus_get_byte(void)
  60:..\..\src/modbus-local-uart.c **** {
 113              		.loc 1 60 0
 114              		.cfi_startproc
 115              		@ args = 0, pretend = 0, frame = 0
 116              		@ frame_needed = 0, uses_anonymous_args = 0
 117 0000 10B5     		push	{r4, lr}
 118              		.cfi_def_cfa_offset 8
 119              		.cfi_offset 4, -8
 120              		.cfi_offset 14, -4
  61:..\..\src/modbus-local-uart.c ****     uint8_t byte;
  62:..\..\src/modbus-local-uart.c ****     RS485_RX_ISR_Disable();
 121              		.loc 1 62 0
 122 0002 FFF7FEFF 		bl	RS485_RX_ISR_Disable
 123              	.LVL7:
  63:..\..\src/modbus-local-uart.c ****     byte = ring_buf_out(&rs_rd_buf);
 124              		.loc 1 63 0
 125 0006 0448     		ldr	r0, .L11
 126 0008 FFF7FEFF 		bl	ring_buf_out
 127              	.LVL8:
 128 000c 0400     		movs	r4, r0
 129              	.LVL9:
  64:..\..\src/modbus-local-uart.c ****     RS485_RX_ISR_Enable();
 130              		.loc 1 64 0
 131 000e FFF7FEFF 		bl	RS485_RX_ISR_Enable
 132              	.LVL10:
  65:..\..\src/modbus-local-uart.c ****     return byte;
  66:..\..\src/modbus-local-uart.c **** }
 133              		.loc 1 66 0
 134 0012 2000     		movs	r0, r4
 135              		@ sp needed
 136              	.LVL11:
 137 0014 10BD     		pop	{r4, pc}
 138              	.L12:
 139 0016 C046     		.align	2
 140              	.L11:
 141 0018 00000000 		.word	.LANCHOR0
 142              		.cfi_endproc
 143              	.LFE34:
 144              		.size	modbus_get_byte, .-modbus_get_byte
 145              		.section	.text.modbus_read_ready,"ax",%progbits
 146              		.align	2
 147              		.global	modbus_read_ready
 148              		.code	16
 149              		.thumb_func
 150              		.type	modbus_read_ready, %function
 151              	modbus_read_ready:
 152              	.LFB35:
  67:..\..\src/modbus-local-uart.c **** 
  68:..\..\src/modbus-local-uart.c **** uint8_t modbus_read_ready(void)
  69:..\..\src/modbus-local-uart.c **** {
 153              		.loc 1 69 0
 154              		.cfi_startproc
 155              		@ args = 0, pretend = 0, frame = 0
 156              		@ frame_needed = 0, uses_anonymous_args = 0
 157 0000 10B5     		push	{r4, lr}
 158              		.cfi_def_cfa_offset 8
ARM GAS  C:\Users\LUKEYO~1\AppData\Local\Temp\cc2zQIlg.s 			page 5


 159              		.cfi_offset 4, -8
 160              		.cfi_offset 14, -4
  70:..\..\src/modbus-local-uart.c ****     uint8_t status;
  71:..\..\src/modbus-local-uart.c ****     RS485_RX_ISR_Disable();
 161              		.loc 1 71 0
 162 0002 FFF7FEFF 		bl	RS485_RX_ISR_Disable
 163              	.LVL12:
  72:..\..\src/modbus-local-uart.c ****     status = ring_buf_count(&rs_rd_buf);
 164              		.loc 1 72 0
 165 0006 0448     		ldr	r0, .L14
 166 0008 FFF7FEFF 		bl	ring_buf_count
 167              	.LVL13:
 168 000c 0400     		movs	r4, r0
 169              	.LVL14:
  73:..\..\src/modbus-local-uart.c ****     RS485_RX_ISR_Enable();
 170              		.loc 1 73 0
 171 000e FFF7FEFF 		bl	RS485_RX_ISR_Enable
 172              	.LVL15:
  74:..\..\src/modbus-local-uart.c ****     return status;
  75:..\..\src/modbus-local-uart.c **** }
 173              		.loc 1 75 0
 174 0012 2000     		movs	r0, r4
 175              		@ sp needed
 176              	.LVL16:
 177 0014 10BD     		pop	{r4, pc}
 178              	.L15:
 179 0016 C046     		.align	2
 180              	.L14:
 181 0018 00000000 		.word	.LANCHOR0
 182              		.cfi_endproc
 183              	.LFE35:
 184              		.size	modbus_read_ready, .-modbus_read_ready
 185              		.section	.text.modbus_write_data,"ax",%progbits
 186              		.align	2
 187              		.global	modbus_write_data
 188              		.code	16
 189              		.thumb_func
 190              		.type	modbus_write_data, %function
 191              	modbus_write_data:
 192              	.LFB36:
  76:..\..\src/modbus-local-uart.c **** 
  77:..\..\src/modbus-local-uart.c **** void modbus_write_data(uint8_t *_data, uint8_t length)
  78:..\..\src/modbus-local-uart.c **** {
 193              		.loc 1 78 0
 194              		.cfi_startproc
 195              		@ args = 0, pretend = 0, frame = 0
 196              		@ frame_needed = 0, uses_anonymous_args = 0
 197              	.LVL17:
 198 0000 10B5     		push	{r4, lr}
 199              		.cfi_def_cfa_offset 8
 200              		.cfi_offset 4, -8
 201              		.cfi_offset 14, -4
  79:..\..\src/modbus-local-uart.c ****     RS485_PutArray(_data, length);
 202              		.loc 1 79 0
 203 0002 FFF7FEFF 		bl	RS485_PutArray
 204              	.LVL18:
  80:..\..\src/modbus-local-uart.c **** }...
ARM GAS  C:\Users\LUKEYO~1\AppData\Local\Temp\cc2zQIlg.s 			page 6


 205              		.loc 1 80 0
 206              		@ sp needed
 207 0006 10BD     		pop	{r4, pc}
 208              		.cfi_endproc
 209              	.LFE36:
 210              		.size	modbus_write_data, .-modbus_write_data
 211              		.global	rs_rd_buf
 212              		.comm	_modbus_timer_finished,1,1
 213              		.bss
 214              		.align	2
 215              		.set	.LANCHOR0,. + 0
 216              		.type	rs_rd_buf, %object
 217              		.size	rs_rd_buf, 68
 218              	rs_rd_buf:
 219 0000 00000000 		.space	68
 219      00000000 
 219      00000000 
 219      00000000 
 219      00000000 
 220              		.text
 221              	.Letext0:
 222              		.file 2 "c:\\program files (x86)\\cypress\\psoc creator\\4.2\\psoc creator\\import\\gnu\\arm\\5.4.
 223              		.file 3 "c:\\program files (x86)\\cypress\\psoc creator\\4.2\\psoc creator\\import\\gnu\\arm\\5.4.
 224              		.file 4 "..\\..\\src\\ringbuffer.h"
 225              		.file 5 "..\\..\\src\\modbus-local.h"
 226              		.file 6 "Generated_Source\\PSoC4/RS485.h"
 227              		.file 7 "..\\..\\src\\modbus.h"
 228              		.file 8 "Generated_Source\\PSoC4/RS485_RX_ISR.h"