ARM GAS  C:\Users\LUKEYO~1\AppData\Local\Temp\ccPI2ZLu.s 			page 1


   1              		.syntax unified
   2              		.cpu cortex-m0
   3              		.fpu softvfp
   4              		.eabi_attribute 20, 1
   5              		.eabi_attribute 21, 1
   6              		.eabi_attribute 23, 3
   7              		.eabi_attribute 24, 1
   8              		.eabi_attribute 25, 1
   9              		.eabi_attribute 26, 1
  10              		.eabi_attribute 30, 1
  11              		.eabi_attribute 34, 0
  12              		.eabi_attribute 18, 4
  13              		.thumb
  14              		.syntax unified
  15              		.file	"ringbuffer.c"
  16              		.text
  17              	.Ltext0:
  18              		.cfi_sections	.debug_frame
  19              		.section	.text.ring_buf_in,"ax",%progbits
  20              		.align	2
  21              		.global	ring_buf_in
  22              		.code	16
  23              		.thumb_func
  24              		.type	ring_buf_in, %function
  25              	ring_buf_in:
  26              	.LFB32:
  27              		.file 1 "..\\..\\src\\ringbuffer.c"
   1:..\..\src/ringbuffer.c **** /* Copyright (C) 2016 Kim Taylor
   2:..\..\src/ringbuffer.c ****  *
   3:..\..\src/ringbuffer.c ****  * This file is part of hbc_mac.
   4:..\..\src/ringbuffer.c ****  *
   5:..\..\src/ringbuffer.c ****  * hbc_mac is free software: you can redistribute it and/or modify
   6:..\..\src/ringbuffer.c ****  * it under the terms of the GNU General Public License as published by
   7:..\..\src/ringbuffer.c ****  * the Free Software Foundation, either version 3 of the License, or
   8:..\..\src/ringbuffer.c ****  * (at your option) any later version.
   9:..\..\src/ringbuffer.c ****  *
  10:..\..\src/ringbuffer.c ****  * hbc_mac is distributed in the hope that it will be useful,
  11:..\..\src/ringbuffer.c ****  * but WITHOUT ANY WARRANTY; without even the implied warranty of
  12:..\..\src/ringbuffer.c ****  * MERCHANTABILITY or FITNESS FOR A PARTICULAR PURPOSE.  See the
  13:..\..\src/ringbuffer.c ****  * GNU General Public License for more details.
  14:..\..\src/ringbuffer.c ****  *
  15:..\..\src/ringbuffer.c ****  * You should have received a copy of the GNU General Public License
  16:..\..\src/ringbuffer.c ****  * along with hbc_mac.  If not, see <http://www.gnu.org/licenses/>.
  17:..\..\src/ringbuffer.c ****  */
  18:..\..\src/ringbuffer.c **** 
  19:..\..\src/ringbuffer.c **** #include "ringbuffer.h"
  20:..\..\src/ringbuffer.c **** 
  21:..\..\src/ringbuffer.c **** /* Must be called with interrupt disabled, or from interrupt context */
  22:..\..\src/ringbuffer.c **** void ring_buf_in(struct ring_buf_s *buffer, uint8_t val)
  23:..\..\src/ringbuffer.c **** {
  28              		.loc 1 23 0
  29              		.cfi_startproc
  30              		@ args = 0, pretend = 0, frame = 0
  31              		@ frame_needed = 0, uses_anonymous_args = 0
  32              	.LVL0:
  33 0000 30B5     		push	{r4, r5, lr}
  34              		.cfi_def_cfa_offset 12
ARM GAS  C:\Users\LUKEYO~1\AppData\Local\Temp\ccPI2ZLu.s 			page 2


  35              		.cfi_offset 4, -12
  36              		.cfi_offset 5, -8
  37              		.cfi_offset 14, -4
  24:..\..\src/ringbuffer.c ****     buffer->buf[buffer->buf_in_i++] = val;
  38              		.loc 1 24 0
  39 0002 4022     		movs	r2, #64
  40 0004 845C     		ldrb	r4, [r0, r2]
  41 0006 651C     		adds	r5, r4, #1
  42 0008 0155     		strb	r1, [r0, r4]
  25:..\..\src/ringbuffer.c ****     buffer->buf_in_i &= BUFFER_MASK;
  43              		.loc 1 25 0
  44 000a 3F23     		movs	r3, #63
  45 000c 2B40     		ands	r3, r5
  46 000e 8354     		strb	r3, [r0, r2]
  26:..\..\src/ringbuffer.c ****     buffer->buf_count++;
  47              		.loc 1 26 0
  48 0010 0232     		adds	r2, r2, #2
  49 0012 835C     		ldrb	r3, [r0, r2]
  50 0014 0133     		adds	r3, r3, #1
  51 0016 DBB2     		uxtb	r3, r3
  52 0018 8354     		strb	r3, [r0, r2]
  27:..\..\src/ringbuffer.c ****     if (buffer->buf_count == RINGBUFFER_SIZE)
  53              		.loc 1 27 0
  54 001a 402B     		cmp	r3, #64
  55 001c 02D1     		bne	.L1
  28:..\..\src/ringbuffer.c ****     {
  29:..\..\src/ringbuffer.c ****         buffer->buf_full = 1;
  56              		.loc 1 29 0
  57 001e 413A     		subs	r2, r2, #65
  58 0020 0333     		adds	r3, r3, #3
  59 0022 C254     		strb	r2, [r0, r3]
  60              	.L1:
  30:..\..\src/ringbuffer.c ****     }
  31:..\..\src/ringbuffer.c **** }
  61              		.loc 1 31 0
  62              		@ sp needed
  63 0024 30BD     		pop	{r4, r5, pc}
  64              		.cfi_endproc
  65              	.LFE32:
  66              		.size	ring_buf_in, .-ring_buf_in
  67 0026 C046     		.section	.text.ring_buf_out,"ax",%progbits
  68              		.align	2
  69              		.global	ring_buf_out
  70              		.code	16
  71              		.thumb_func
  72              		.type	ring_buf_out, %function
  73              	ring_buf_out:
  74              	.LFB33:
  32:..\..\src/ringbuffer.c **** 
  33:..\..\src/ringbuffer.c **** /* Must be called with interrupt disabled, or from interrupt context */
  34:..\..\src/ringbuffer.c **** uint8_t ring_buf_out(struct ring_buf_s *buffer)
  35:..\..\src/ringbuffer.c **** {
  75              		.loc 1 35 0
  76              		.cfi_startproc
  77              		@ args = 0, pretend = 0, frame = 0
  78              		@ frame_needed = 0, uses_anonymous_args = 0
  79              	.LVL1:
ARM GAS  C:\Users\LUKEYO~1\AppData\Local\Temp\ccPI2ZLu.s 			page 3


  80 0000 10B5     		push	{r4, lr}
  81              		.cfi_def_cfa_offset 8
  82              		.cfi_offset 4, -8
  83              		.cfi_offset 14, -4
  84 0002 0300     		movs	r3, r0
  36:..\..\src/ringbuffer.c ****     uint8_t byte;
  37:..\..\src/ringbuffer.c ****     byte = buffer->buf[buffer->buf_out_i++];
  85              		.loc 1 37 0
  86 0004 4121     		movs	r1, #65
  87 0006 405C     		ldrb	r0, [r0, r1]
  88              	.LVL2:
  89 0008 421C     		adds	r2, r0, #1
  90 000a D2B2     		uxtb	r2, r2
  91 000c 5A54     		strb	r2, [r3, r1]
  92 000e 185C     		ldrb	r0, [r3, r0]
  93              	.LVL3:
  38:..\..\src/ringbuffer.c ****     buffer->buf_out_i &= BUFFER_MASK;
  94              		.loc 1 38 0
  95 0010 3F24     		movs	r4, #63
  96 0012 2240     		ands	r2, r4
  97 0014 5A54     		strb	r2, [r3, r1]
  39:..\..\src/ringbuffer.c ****     buffer->buf_count--;
  98              		.loc 1 39 0
  99 0016 0131     		adds	r1, r1, #1
 100 0018 5A5C     		ldrb	r2, [r3, r1]
 101 001a 013A     		subs	r2, r2, #1
 102 001c 5A54     		strb	r2, [r3, r1]
  40:..\..\src/ringbuffer.c ****     buffer->buf_full = 0;
 103              		.loc 1 40 0
 104 001e 0021     		movs	r1, #0
 105 0020 4322     		movs	r2, #67
 106 0022 9954     		strb	r1, [r3, r2]
  41:..\..\src/ringbuffer.c ****     return byte;
  42:..\..\src/ringbuffer.c **** }
 107              		.loc 1 42 0
 108              		@ sp needed
 109 0024 10BD     		pop	{r4, pc}
 110              		.cfi_endproc
 111              	.LFE33:
 112              		.size	ring_buf_out, .-ring_buf_out
 113 0026 C046     		.section	.text.ring_buf_count,"ax",%progbits
 114              		.align	2
 115              		.global	ring_buf_count
 116              		.code	16
 117              		.thumb_func
 118              		.type	ring_buf_count, %function
 119              	ring_buf_count:
 120              	.LFB34:
  43:..\..\src/ringbuffer.c **** 
  44:..\..\src/ringbuffer.c **** uint8_t ring_buf_count(struct ring_buf_s *buffer)
  45:..\..\src/ringbuffer.c **** {
 121              		.loc 1 45 0
 122              		.cfi_startproc
 123              		@ args = 0, pretend = 0, frame = 0
 124              		@ frame_needed = 0, uses_anonymous_args = 0
 125              		@ link register save eliminated.
 126              	.LVL4:
ARM GAS  C:\Users\LUKEYO~1\AppData\Local\Temp\ccPI2ZLu.s 			page 4


  46:..\..\src/ringbuffer.c ****     return buffer->buf_count;
 127              		.loc 1 46 0
 128 0000 4223     		movs	r3, #66
 129 0002 C05C     		ldrb	r0, [r0, r3]
 130              	.LVL5:
  47:..\..\src/ringbuffer.c **** }
 131              		.loc 1 47 0
 132              		@ sp needed
 133 0004 7047     		bx	lr
 134              		.cfi_endproc
 135              	.LFE34:
 136              		.size	ring_buf_count, .-ring_buf_count
 137 0006 C046     		.section	.text.ring_buf_full,"ax",%progbits
 138              		.align	2
 139              		.global	ring_buf_full
 140              		.code	16
 141              		.thumb_func
 142              		.type	ring_buf_full, %function
 143              	ring_buf_full:
 144              	.LFB35:
  48:..\..\src/ringbuffer.c **** 
  49:..\..\src/ringbuffer.c **** uint8_t ring_buf_full(struct ring_buf_s *buffer)
  50:..\..\src/ringbuffer.c **** {
 145              		.loc 1 50 0
 146              		.cfi_startproc
 147              		@ args = 0, pretend = 0, frame = 0
 148              		@ frame_needed = 0, uses_anonymous_args = 0
 149              		@ link register save eliminated.
 150              	.LVL6:
  51:..\..\src/ringbuffer.c ****     return buffer->buf_full;
 151              		.loc 1 51 0
 152 0000 4323     		movs	r3, #67
 153 0002 C05C     		ldrb	r0, [r0, r3]
 154              	.LVL7:
  52:..\..\src/ringbuffer.c **** }
 155              		.loc 1 52 0
 156              		@ sp needed
 157 0004 7047     		bx	lr
 158              		.cfi_endproc
 159              	.LFE35:
 160              		.size	ring_buf_full, .-ring_buf_full
 161 0006 C046     		.text
 162              	.Letext0:
 163              		.file 2 "c:\\program files (x86)\\cypress\\psoc creator\\4.2\\psoc creator\\import\\gnu\\arm\\5.4.
 164              		.file 3 "c:\\program files (x86)\\cypress\\psoc creator\\4.2\\psoc creator\\import\\gnu\\arm\\5.4.
 165              		.file 4 "..\\..\\src\\ringbuffer.h"